
NSSCL.elf:     file format elf32-littleriscv
NSSCL.elf
architecture: riscv:rv32, flags 0x00000112:
EXEC_P, HAS_SYMS, D_PAGED
start address 0x00000000

Program Header:
    LOAD off    0x00001000 vaddr 0x00000000 paddr 0x00000000 align 2**12
         filesz 0x00004ce8 memsz 0x00004ce8 flags r-x
    LOAD off    0x00006000 vaddr 0x20000000 paddr 0x00004ce8 align 2**12
         filesz 0x00000090 memsz 0x000001cc flags rw-
    LOAD off    0x00007000 vaddr 0x20002000 paddr 0x20002000 align 2**12
         filesz 0x00000000 memsz 0x00000800 flags rw-

Sections:
Idx Name          Size      VMA       LMA       File off  Algn
  0 .init         00000038  00000000  00000000  00001000  2**1
                  CONTENTS, ALLOC, LOAD, READONLY, CODE
  1 .vector       00000108  00000038  00000038  00001038  2**1
                  CONTENTS, ALLOC, LOAD, READONLY, CODE
  2 .text         00004ba8  00000140  00000140  00001140  2**3
                  CONTENTS, ALLOC, LOAD, READONLY, CODE
  3 .fini         00000000  00004ce8  00004ce8  00006090  2**0
                  CONTENTS, ALLOC, LOAD, CODE
  4 .dalign       00000000  20000000  20000000  00006090  2**0
                  CONTENTS
  5 .dlalign      00000000  00004ce8  00004ce8  00006090  2**0
                  CONTENTS
  6 .data         00000090  20000000  00004ce8  00006000  2**2
                  CONTENTS, ALLOC, LOAD, DATA
  7 .bss          0000013c  20000090  00004d78  00006090  2**2
                  ALLOC
  8 .stack        00000800  20002000  20002000  00007000  2**0
                  ALLOC
  9 .debug_info   000095f0  00000000  00000000  00006090  2**0
                  CONTENTS, READONLY, DEBUGGING
 10 .debug_abbrev 00001b1f  00000000  00000000  0000f680  2**0
                  CONTENTS, READONLY, DEBUGGING
 11 .debug_aranges 000007c0  00000000  00000000  000111a0  2**3
                  CONTENTS, READONLY, DEBUGGING
 12 .debug_ranges 00000870  00000000  00000000  00011960  2**3
                  CONTENTS, READONLY, DEBUGGING
 13 .debug_line   00009d31  00000000  00000000  000121d0  2**0
                  CONTENTS, READONLY, DEBUGGING
 14 .debug_str    0000253b  00000000  00000000  0001bf01  2**0
                  CONTENTS, READONLY, DEBUGGING
 15 .comment      00000033  00000000  00000000  0001e43c  2**0
                  CONTENTS, READONLY
 16 .debug_frame  00001808  00000000  00000000  0001e470  2**2
                  CONTENTS, READONLY, DEBUGGING
 17 .debug_loc    00003cec  00000000  00000000  0001fc78  2**0
                  CONTENTS, READONLY, DEBUGGING
SYMBOL TABLE:
00000000 l    d  .init	00000000 .init
00000038 l    d  .vector	00000000 .vector
00000140 l    d  .text	00000000 .text
00004ce8 l    d  .fini	00000000 .fini
20000000 l    d  .dalign	00000000 .dalign
00004ce8 l    d  .dlalign	00000000 .dlalign
20000000 l    d  .data	00000000 .data
20000090 l    d  .bss	00000000 .bss
20002000 l    d  .stack	00000000 .stack
00000000 l    d  .debug_info	00000000 .debug_info
00000000 l    d  .debug_abbrev	00000000 .debug_abbrev
00000000 l    d  .debug_aranges	00000000 .debug_aranges
00000000 l    d  .debug_ranges	00000000 .debug_ranges
00000000 l    d  .debug_line	00000000 .debug_line
00000000 l    d  .debug_str	00000000 .debug_str
00000000 l    d  .comment	00000000 .comment
00000000 l    d  .debug_frame	00000000 .debug_frame
00000000 l    d  .debug_loc	00000000 .debug_loc
00000000 l    df *ABS*	00000000 ./Startup/startup_ch32v20x_D6.o
00000038 l       .vector	00000000 _vector_base
00000000 l    df *ABS*	00000000 ch32v20x_it.c
00000000 l    df *ABS*	00000000 font.c
000039f8 l     O .text	00000b10 font_16x24
00004508 l     O .text	00000228 font_6x8
00004730 l     O .text	00000300 font_8x8
00000000 l    df *ABS*	00000000 hx711.c
20000090 l     O .bss	00000001 sck_cnt
00000000 l    df *ABS*	00000000 main.c
00000000 l    df *ABS*	00000000 oled.c
20000148 l     O .bss	00000080 buffer
00000000 l    df *ABS*	00000000 system_ch32v20x.c
00000000 l    df *ABS*	00000000 ch32v20x_gpio.c
00000000 l    df *ABS*	00000000 ch32v20x_i2c.c
00000000 l    df *ABS*	00000000 ch32v20x_misc.c
00000000 l    df *ABS*	00000000 ch32v20x_rcc.c
20000010 l     O .data	00000010 APBAHBPrescTable
20000084 l     O .data	00000004 ADCPrescTable
00000000 l    df *ABS*	00000000 ch32v20x_tim.c
00000000 l    df *ABS*	00000000 delay.c
20000098 l     O .bss	00000002 p_ms
2000009a l     O .bss	00000001 p_us
00000000 l    df *ABS*	00000000 subdf3.c
00000000 l    df *ABS*	00000000 addsf3.c
00000000 l    df *ABS*	00000000 divsf3.c
00000000 l    df *ABS*	00000000 gesf2.c
00000000 l    df *ABS*	00000000 lesf2.c
00000000 l    df *ABS*	00000000 mulsf3.c
00000000 l    df *ABS*	00000000 subsf3.c
00000000 l    df *ABS*	00000000 fixsfsi.c
00000000 l    df *ABS*	00000000 floatsisf.c
00000000 l    df *ABS*	00000000 floatunsisf.c
00000000 l    df *ABS*	00000000 extendsfdf2.c
00000000 l    df *ABS*	00000000 truncdfsf2.c
00000000 l    df *ABS*	00000000 libgcc2.c
00000000 l    df *ABS*	00000000 malloc.c
00000000 l    df *ABS*	00000000 memmove.c
00000000 l    df *ABS*	00000000 nano-mallocr.c
00000000 l    df *ABS*	00000000 nano-mallocr.c
00000000 l    df *ABS*	00000000 sbrkr.c
00000000 l    df *ABS*	00000000 strlen.c
00000000 l    df *ABS*	00000000 vsprintf.c
00000000 l    df *ABS*	00000000 mlock.c
00000000 l    df *ABS*	00000000 nano-vfprintf.c
00000000 l    df *ABS*	00000000 nano-vfprintf_i.c
00000000 l    df *ABS*	00000000 memchr.c
00000000 l    df *ABS*	00000000 memcpy.c
00000000 l    df *ABS*	00000000 nano-mallocr.c
00000000 l    df *ABS*	00000000 nano-mallocr.c
00000000 l    df *ABS*	00000000 sbrk.c
200000a4 l     O .bss	00000004 heap_end.1518
00000000 l    df *ABS*	00000000 libgcc2.c
00000000 l    df *ABS*	00000000 impure.c
20000020 l     O .data	00000060 impure_data
00000000 l    df *ABS*	00000000 reent.c
000039c2 g     F .text	00000014 _malloc_usable_size_r
000010bc  w      .text	00000000 EXTI2_IRQHandler
00000554 g     F .text	0000007c SCL_Get
20000880 g       .data	00000000 __global_pointer$
000031a2 g     F .text	0000000e vsprintf
00000148 g     F .text	00000028 .hidden __riscv_save_8
000010e2  w      .text	00000000 TIM1_CC_IRQHandler
0000024c g     F .text	00000002 HardFault_Handler
000031b2 g     F .text	00000002 __malloc_unlock
00000194 g     F .text	0000000c .hidden __riscv_restore_3
00002114 g     F .text	000002b2 .hidden __divsf3
000010a8  w      .text	00000000 SysTick_Handler
000010ae  w      .text	00000000 PVD_IRQHandler
00002f82 g     F .text	00000046 memmove
00000180 g     F .text	00000020 .hidden __riscv_restore_10
00000248 g     F .text	00000004 NMI_Handler
00002af4 g     F .text	00000062 .hidden __fixsfsi
000010be  w      .text	00000000 EXTI3_IRQHandler
00000148 g     F .text	00000028 .hidden __riscv_save_11
200001c8 g     O .bss	00000004 errno
20000090 g       .bss	00000000 _sbss
00000800 g       *ABS*	00000000 __stack_size
00000272 g     F .text	0000003c FONT_Size
0000276c g     F .text	00000388 .hidden __subsf3
0000034a g     F .text	00000062 HX711_GetValue
00000194 g     F .text	0000000c .hidden __riscv_restore_2
00000d4e g     F .text	000000b0 OLED_Char
000038ba g     F .text	000000b2 memcpy
00000c5c g     F .text	00000024 pos
00000cb4 g     F .text	0000009a OLED_Init
00003292 g     F .text	00000262 _svfprintf_r
000010b8  w      .text	00000000 EXTI0_IRQHandler
000010ee  w      .text	00000000 I2C2_EV_IRQHandler
00001566 g     F .text	00000018 TIM_Cmd
20000080 g     O .data	00000004 SystemCoreClock
00003176 g     F .text	0000002c _vsiprintf_r
00002f6e g     F .text	0000000a malloc
00000038 g       .init	00000000 _einit
000005e8 g     F .text	00000030 SCL_GetGram
0000244c g     F .text	0000008c .hidden __lesf2
0000152a g     F .text	0000001e RCC_APB2PeriphClockCmd
00000140 g     F .text	00000030 .hidden __riscv_save_12
000010d0  w      .text	00000000 ADC1_2_IRQHandler
00001190 g     F .text	000000f2 GPIO_Init
000010a6  w      .text	00000000 Break_Point_Handler
00000180 g     F .text	00000020 .hidden __riscv_restore_11
20000094 g     O .bss	00000004 NVIC_Priority_Group
000010f2  w      .text	00000000 SPI1_IRQHandler
0000032a g     F .text	00000020 HX711_Ready
0000313a g     F .text	0000002a _sbrk_r
0000053c g     F .text	00000018 VBAT_WaitStable
000010b0  w      .text	00000000 TAMPER_IRQHandler
00000170 g     F .text	0000000c .hidden __riscv_save_1
00000194 g     F .text	0000000c .hidden __riscv_restore_0
00000156 g     F .text	0000001a .hidden __riscv_save_7
00002cea g     F .text	000000ac .hidden __extendsfdf2
00001548 g     F .text	0000001e RCC_APB1PeriphClockCmd
000010a2  w      .text	00000000 Ecall_M_Mode_Handler
00001600 g     F .text	00000036 Delay_Us
0000018a g     F .text	00000016 .hidden __riscv_restore_5
000003e4 g     F .text	00000040 GPIOx_Init
0000396c g     F .text	00000056 _realloc_r
000010c8  w      .text	00000000 DMA1_Channel4_IRQHandler
000031a2 g     F .text	0000000e vsiprintf
00001408 g     F .text	00000004 I2C_SendData
000039d6 g     F .text	00000020 _sbrk
200000a8 g     O .bss	00000050 sclBuf
000012b0 g     F .text	000000f2 I2C_Init
00000e94 g     F .text	0000008e OLED_Printfc
0000018a g     F .text	00000016 .hidden __riscv_restore_6
000010fa  w      .text	00000000 USART3_IRQHandler
000010b2  w      .text	00000000 RTC_IRQHandler
200001cc g       .bss	00000000 _ebss
000010ce  w      .text	00000000 DMA1_Channel7_IRQHandler
00000b92 g     F .text	000000ca dats
000015d2 g     F .text	00000004 TIM_SetAutoreload
000010d6  w      .text	00000000 CAN1_RX1_IRQHandler
000015d6 g     F .text	0000002a Delay_Init
000023c6 g     F .text	00000086 .hidden __gtsf2
000010e8  w      .text	00000000 TIM4_IRQHandler
00000148 g     F .text	00000028 .hidden __riscv_save_9
00001296 g     F .text	0000001a GPIO_WriteBit
000013ba g     F .text	0000001a I2C_GenerateSTART
00000156 g     F .text	0000001a .hidden __riscv_save_4
000005d0 g     F .text	00000018 SCL_WaitStable
200001cc g       .bss	00000000 end
000010ea  w      .text	00000000 I2C1_EV_IRQHandler
000031b4 g     F .text	000000de __ssputs_r
00001102  w      .text	00000000 USBHD_IRQHandler
0000146c g     F .text	000000be RCC_GetClocksFreq
000010cc  w      .text	00000000 DMA1_Channel6_IRQHandler
00002f00 g     F .text	0000006e .hidden __clzsi2
00001106  w      .text	00000000 UART4_IRQHandler
000038a2 g     F .text	00000018 memchr
00002fc8 g     F .text	000000a4 _free_r
000010e6  w      .text	00000000 TIM3_IRQHandler
000010b6  w      .text	00000000 RCC_IRQHandler
20000092 g     O .bss	00000001 tpb_down
00000170 g     F .text	0000000c .hidden __riscv_save_3
000010e0  w      .text	00000000 TIM1_TRG_COM_IRQHandler
000010c2  w      .text	00000000 DMA1_Channel1_IRQHandler
00000000 g       .init	00000000 _start
20000000 g     O .data	00000010 AHBPrescTable
00001434 g     F .text	00000032 I2C_GetFlagStatus
00001594 g     F .text	00000010 TIM_SelectInputTrigger
00002b56 g     F .text	000000c6 .hidden __floatsisf
000010fc  w      .text	00000000 EXTI15_10_IRQHandler
200000f8 g     O .bss	00000050 vbatBuf
00001108  w      .text	00000000 DMA1_Channel8_IRQHandler
0000157e g     F .text	00000006 TIM_PrescalerConfig
000013a2 g     F .text	00000018 I2C_Cmd
00001282 g     F .text	00000014 GPIO_ResetBits
000015a4 g     F .text	00000018 TIM_SelectOutputTrigger
20000000 g       .dalign	00000000 _data_vma
20000093 g     O .bss	00000001 MCU_Version
000010da  w      .text	00000000 EXTI9_5_IRQHandler
00000148 g     F .text	00000028 .hidden __riscv_save_10
000003ac g     F .text	00000038 HX711_Switch
0000140c g     F .text	00000012 I2C_Send7bitAddress
000031b0 g     F .text	00000002 __malloc_lock
0000018a g     F .text	00000016 .hidden __riscv_restore_4
00000180 g     F .text	00000020 .hidden __riscv_restore_8
00000156 g     F .text	0000001a .hidden __riscv_save_6
00000c80 g     F .text	00000034 OLED_Clear
000010f4  w      .text	00000000 SPI2_IRQHandler
000001a0 g     F .text	000000a8 memset
00000424 g     F .text	00000088 TIMx_Init
00000180 g     F .text	00000020 .hidden __riscv_restore_9
0000018a g     F .text	00000016 .hidden __riscv_restore_7
00000618 g     F .text	0000042a main
0000024e g     F .text	00000024 FONT_Get
0000244c g     F .text	0000008c .hidden __ltsf2
00000a42 g     F .text	00000096 IIC_Init
00002d96 g     F .text	0000016a .hidden __truncdfsf2
0000306c g     F .text	000000ce _malloc_r
000010ca  w      .text	00000000 DMA1_Channel5_IRQHandler
000010c0  w      .text	00000000 EXTI4_IRQHandler
00001636 g     F .text	00000036 Delay_Ms
000010d4  w      .text	00000000 USB_LP_CAN1_RX0_IRQHandler
000024d8 g     F .text	00000294 .hidden __mulsf3
00000f22 g     F .text	000000ea SystemInit
000010d2  w      .text	00000000 USB_HP_CAN1_TX_IRQHandler
00004bac g     O .text	00000100 .hidden __clz_tab
00000000 g       .init	00000000 _sinit
00001104  w      .text	00000000 USBHDWakeUp_IRQHandler
000023c6 g     F .text	00000086 .hidden __gesf2
00003176 g     F .text	0000002c _vsprintf_r
000010c6  w      .text	00000000 DMA1_Channel3_IRQHandler
000034f4 g     F .text	0000010c _printf_common
20000088 g     O .data	00000004 _impure_ptr
000010de  w      .text	00000000 TIM1_UP_IRQHandler
00003292 g     F .text	00000262 _svfiprintf_r
000010ac  w      .text	00000000 WWDG_IRQHandler
000010a4  w      .text	00000000 Ecall_U_Mode_Handler
000010e4  w      .text	00000000 TIM2_IRQHandler
20002800 g       .stack	00000000 _eusrstack
00000170 g     F .text	0000000c .hidden __riscv_save_2
000010aa  w      .text	00000000 SW_Handler
000010dc  w      .text	00000000 TIM1_BRK_IRQHandler
000010ba  w      .text	00000000 EXTI1_IRQHandler
00000156 g     F .text	0000001a .hidden __riscv_save_5
000002ae g     F .text	0000007c HX711_Init
20000090 g       .data	00000000 _edata
000004ac g     F .text	00000090 VBAT_Get
000010fe  w      .text	00000000 RTCAlarm_IRQHandler
00000dfe g     F .text	00000096 OLED_Print
00004ce8 g       .dlalign	00000000 _data_lma
000010f8  w      .text	00000000 USART2_IRQHandler
0000100c g     F .text	00000092 SystemCoreClockUpdate
00002c1c g     F .text	000000ce .hidden __floatunsisf
000010f0  w      .text	00000000 I2C2_ER_IRQHandler
000010c4  w      .text	00000000 DMA1_Channel2_IRQHandler
0000017c g     F .text	00000024 .hidden __riscv_restore_12
0000110a  w      .text	00000000 handle_reset
000010d8  w      .text	00000000 CAN1_SCE_IRQHandler
000010b4  w      .text	00000000 FLASH_IRQHandler
00000170 g     F .text	0000000c .hidden __riscv_save_0
000010f6  w      .text	00000000 USART1_IRQHandler
000013ee g     F .text	0000001a I2C_AcknowledgeConfig
00003164 g     F .text	00000012 strlen
00003600 g     F .text	000002a2 _printf_i
200000a0 g     O .bss	00000004 __malloc_sbrk_start
0000141e g     F .text	00000016 I2C_CheckEvent
000013d4 g     F .text	0000001a I2C_GenerateSTOP
000015bc g     F .text	00000016 TIM_SelectSlaveMode
000010ec  w      .text	00000000 I2C1_ER_IRQHandler
00001466 g     F .text	00000006 NVIC_PriorityGroupConfig
2000009c g     O .bss	00000004 __malloc_free_list
00000194 g     F .text	0000000c .hidden __riscv_restore_1
0000166c g     F .text	0000073e .hidden __subdf3
20000091 g     O .bss	00000001 tpa_down
00001daa g     F .text	0000036a .hidden __addsf3
00001100  w      .text	00000000 USBWakeUp_IRQHandler
00000ad8 g     F .text	000000ba cmd
00001584 g     F .text	00000010 TIM_CounterModeConfig
00002f78 g     F .text	0000000a free



Disassembly of section .init:

00000000 <_sinit>:
   0:	10a0106f          	j	110a <handle_reset>
   4:	00000013          	nop
   8:	00000013          	nop
   c:	00000013          	nop
  10:	00000013          	nop
  14:	00000013          	nop
  18:	00000013          	nop
  1c:	00000013          	nop
  20:	00000013          	nop
  24:	00000013          	nop
  28:	00000013          	nop
  2c:	00000013          	nop
  30:	00000013          	nop
  34:	00100073          	ebreak

Disassembly of section .vector:

00000038 <_vector_base>:
	...
  40:	0248                	addi	a0,sp,260
  42:	0000                	unimp
  44:	024c                	addi	a1,sp,260
  46:	0000                	unimp
  48:	0000                	unimp
  4a:	0000                	unimp
  4c:	10a2                	slli	ra,ra,0x28
	...
  56:	0000                	unimp
  58:	10a4                	addi	s1,sp,104
  5a:	0000                	unimp
  5c:	10a6                	slli	ra,ra,0x29
	...
  66:	0000                	unimp
  68:	10a8                	addi	a0,sp,104
  6a:	0000                	unimp
  6c:	0000                	unimp
  6e:	0000                	unimp
  70:	10aa                	slli	ra,ra,0x2a
  72:	0000                	unimp
  74:	0000                	unimp
  76:	0000                	unimp
  78:	10ac                	addi	a1,sp,104
  7a:	0000                	unimp
  7c:	10ae                	slli	ra,ra,0x2b
  7e:	0000                	unimp
  80:	10b0                	addi	a2,sp,104
  82:	0000                	unimp
  84:	10b2                	slli	ra,ra,0x2c
  86:	0000                	unimp
  88:	10b4                	addi	a3,sp,104
  8a:	0000                	unimp
  8c:	10b6                	slli	ra,ra,0x2d
  8e:	0000                	unimp
  90:	10b8                	addi	a4,sp,104
  92:	0000                	unimp
  94:	10ba                	slli	ra,ra,0x2e
  96:	0000                	unimp
  98:	10bc                	addi	a5,sp,104
  9a:	0000                	unimp
  9c:	10be                	slli	ra,ra,0x2f
  9e:	0000                	unimp
  a0:	10c0                	addi	s0,sp,100
  a2:	0000                	unimp
  a4:	10c2                	slli	ra,ra,0x30
  a6:	0000                	unimp
  a8:	10c4                	addi	s1,sp,100
  aa:	0000                	unimp
  ac:	10c6                	slli	ra,ra,0x31
  ae:	0000                	unimp
  b0:	10c8                	addi	a0,sp,100
  b2:	0000                	unimp
  b4:	10ca                	slli	ra,ra,0x32
  b6:	0000                	unimp
  b8:	10cc                	addi	a1,sp,100
  ba:	0000                	unimp
  bc:	10ce                	slli	ra,ra,0x33
  be:	0000                	unimp
  c0:	10d0                	addi	a2,sp,100
  c2:	0000                	unimp
  c4:	10d2                	slli	ra,ra,0x34
  c6:	0000                	unimp
  c8:	10d4                	addi	a3,sp,100
  ca:	0000                	unimp
  cc:	10d6                	slli	ra,ra,0x35
  ce:	0000                	unimp
  d0:	10d8                	addi	a4,sp,100
  d2:	0000                	unimp
  d4:	10da                	slli	ra,ra,0x36
  d6:	0000                	unimp
  d8:	10dc                	addi	a5,sp,100
  da:	0000                	unimp
  dc:	10de                	slli	ra,ra,0x37
  de:	0000                	unimp
  e0:	10e0                	addi	s0,sp,108
  e2:	0000                	unimp
  e4:	10e2                	slli	ra,ra,0x38
  e6:	0000                	unimp
  e8:	10e4                	addi	s1,sp,108
  ea:	0000                	unimp
  ec:	10e6                	slli	ra,ra,0x39
  ee:	0000                	unimp
  f0:	10e8                	addi	a0,sp,108
  f2:	0000                	unimp
  f4:	10ea                	slli	ra,ra,0x3a
  f6:	0000                	unimp
  f8:	10ec                	addi	a1,sp,108
  fa:	0000                	unimp
  fc:	10ee                	slli	ra,ra,0x3b
  fe:	0000                	unimp
 100:	10f0                	addi	a2,sp,108
 102:	0000                	unimp
 104:	10f2                	slli	ra,ra,0x3c
 106:	0000                	unimp
 108:	10f4                	addi	a3,sp,108
 10a:	0000                	unimp
 10c:	10f6                	slli	ra,ra,0x3d
 10e:	0000                	unimp
 110:	10f8                	addi	a4,sp,108
 112:	0000                	unimp
 114:	10fa                	slli	ra,ra,0x3e
 116:	0000                	unimp
 118:	10fc                	addi	a5,sp,108
 11a:	0000                	unimp
 11c:	10fe                	slli	ra,ra,0x3f
 11e:	0000                	unimp
 120:	1100                	addi	s0,sp,160
 122:	0000                	unimp
 124:	1102                	slli	sp,sp,0x20
 126:	0000                	unimp
 128:	1104                	addi	s1,sp,160
 12a:	0000                	unimp
 12c:	1106                	slli	sp,sp,0x21
 12e:	0000                	unimp
 130:	1108                	addi	a0,sp,160
	...

Disassembly of section .text:

00000140 <__riscv_save_12>:
     140:	7139                	addi	sp,sp,-64
     142:	4301                	li	t1,0
     144:	c66e                	sw	s11,12(sp)
     146:	a019                	j	14c <__riscv_save_10+0x4>

00000148 <__riscv_save_10>:
     148:	7139                	addi	sp,sp,-64
     14a:	5341                	li	t1,-16
     14c:	c86a                	sw	s10,16(sp)
     14e:	ca66                	sw	s9,20(sp)
     150:	cc62                	sw	s8,24(sp)
     152:	ce5e                	sw	s7,28(sp)
     154:	a019                	j	15a <__riscv_save_4+0x4>

00000156 <__riscv_save_4>:
     156:	7139                	addi	sp,sp,-64
     158:	5301                	li	t1,-32
     15a:	d05a                	sw	s6,32(sp)
     15c:	d256                	sw	s5,36(sp)
     15e:	d452                	sw	s4,40(sp)
     160:	d64e                	sw	s3,44(sp)
     162:	d84a                	sw	s2,48(sp)
     164:	da26                	sw	s1,52(sp)
     166:	dc22                	sw	s0,56(sp)
     168:	de06                	sw	ra,60(sp)
     16a:	40610133          	sub	sp,sp,t1
     16e:	8282                	jr	t0

00000170 <__riscv_save_0>:
     170:	1141                	addi	sp,sp,-16
     172:	c04a                	sw	s2,0(sp)
     174:	c226                	sw	s1,4(sp)
     176:	c422                	sw	s0,8(sp)
     178:	c606                	sw	ra,12(sp)
     17a:	8282                	jr	t0

0000017c <__riscv_restore_12>:
     17c:	4db2                	lw	s11,12(sp)
     17e:	0141                	addi	sp,sp,16

00000180 <__riscv_restore_10>:
     180:	4d02                	lw	s10,0(sp)
     182:	4c92                	lw	s9,4(sp)
     184:	4c22                	lw	s8,8(sp)
     186:	4bb2                	lw	s7,12(sp)
     188:	0141                	addi	sp,sp,16

0000018a <__riscv_restore_4>:
     18a:	4b02                	lw	s6,0(sp)
     18c:	4a92                	lw	s5,4(sp)
     18e:	4a22                	lw	s4,8(sp)
     190:	49b2                	lw	s3,12(sp)
     192:	0141                	addi	sp,sp,16

00000194 <__riscv_restore_0>:
     194:	4902                	lw	s2,0(sp)
     196:	4492                	lw	s1,4(sp)
     198:	4422                	lw	s0,8(sp)
     19a:	40b2                	lw	ra,12(sp)
     19c:	0141                	addi	sp,sp,16
     19e:	8082                	ret

000001a0 <memset>:
     1a0:	433d                	li	t1,15
     1a2:	872a                	mv	a4,a0
     1a4:	02c37363          	bgeu	t1,a2,1ca <memset+0x2a>
     1a8:	00f77793          	andi	a5,a4,15
     1ac:	efbd                	bnez	a5,22a <memset+0x8a>
     1ae:	e5ad                	bnez	a1,218 <memset+0x78>
     1b0:	ff067693          	andi	a3,a2,-16
     1b4:	8a3d                	andi	a2,a2,15
     1b6:	96ba                	add	a3,a3,a4
     1b8:	c30c                	sw	a1,0(a4)
     1ba:	c34c                	sw	a1,4(a4)
     1bc:	c70c                	sw	a1,8(a4)
     1be:	c74c                	sw	a1,12(a4)
     1c0:	0741                	addi	a4,a4,16
     1c2:	fed76be3          	bltu	a4,a3,1b8 <memset+0x18>
     1c6:	e211                	bnez	a2,1ca <memset+0x2a>
     1c8:	8082                	ret
     1ca:	40c306b3          	sub	a3,t1,a2
     1ce:	068a                	slli	a3,a3,0x2
     1d0:	00000297          	auipc	t0,0x0
     1d4:	9696                	add	a3,a3,t0
     1d6:	00a68067          	jr	10(a3)
     1da:	00b70723          	sb	a1,14(a4)
     1de:	00b706a3          	sb	a1,13(a4)
     1e2:	00b70623          	sb	a1,12(a4)
     1e6:	00b705a3          	sb	a1,11(a4)
     1ea:	00b70523          	sb	a1,10(a4)
     1ee:	00b704a3          	sb	a1,9(a4)
     1f2:	00b70423          	sb	a1,8(a4)
     1f6:	00b703a3          	sb	a1,7(a4)
     1fa:	00b70323          	sb	a1,6(a4)
     1fe:	00b702a3          	sb	a1,5(a4)
     202:	00b70223          	sb	a1,4(a4)
     206:	00b701a3          	sb	a1,3(a4)
     20a:	00b70123          	sb	a1,2(a4)
     20e:	00b700a3          	sb	a1,1(a4)
     212:	00b70023          	sb	a1,0(a4)
     216:	8082                	ret
     218:	0ff5f593          	andi	a1,a1,255
     21c:	00859693          	slli	a3,a1,0x8
     220:	8dd5                	or	a1,a1,a3
     222:	01059693          	slli	a3,a1,0x10
     226:	8dd5                	or	a1,a1,a3
     228:	b761                	j	1b0 <memset+0x10>
     22a:	00279693          	slli	a3,a5,0x2
     22e:	00000297          	auipc	t0,0x0
     232:	9696                	add	a3,a3,t0
     234:	8286                	mv	t0,ra
     236:	fa8680e7          	jalr	-88(a3)
     23a:	8096                	mv	ra,t0
     23c:	17c1                	addi	a5,a5,-16
     23e:	8f1d                	sub	a4,a4,a5
     240:	963e                	add	a2,a2,a5
     242:	f8c374e3          	bgeu	t1,a2,1ca <memset+0x2a>
     246:	b7a5                	j	1ae <memset+0xe>

00000248 <NMI_Handler>:
     248:	30200073          	mret

0000024c <HardFault_Handler>:
     24c:	a001                	j	24c <HardFault_Handler>

0000024e <FONT_Get>:
     24e:	4785                	li	a5,1
     250:	00f50963          	beq	a0,a5,262 <FONT_Get+0x14>
     254:	4789                	li	a5,2
     256:	00f50a63          	beq	a0,a5,26a <FONT_Get+0x1c>
     25a:	6511                	lui	a0,0x4
     25c:	50850513          	addi	a0,a0,1288 # 4508 <font_6x8>
     260:	8082                	ret
     262:	6511                	lui	a0,0x4
     264:	73050513          	addi	a0,a0,1840 # 4730 <font_8x8>
     268:	8082                	ret
     26a:	6511                	lui	a0,0x4
     26c:	9f850513          	addi	a0,a0,-1544 # 39f8 <font_16x24>
     270:	8082                	ret

00000272 <FONT_Size>:
     272:	6791                	lui	a5,0x4
     274:	50878793          	addi	a5,a5,1288 # 4508 <font_6x8>
     278:	00f51a63          	bne	a0,a5,28c <FONT_Size+0x1a>
     27c:	4799                	li	a5,6
     27e:	a19c                	sb	a5,0(a1)
     280:	47a1                	li	a5,8
     282:	a21c                	sb	a5,0(a2)
     284:	02000793          	li	a5,32
     288:	a29c                	sb	a5,0(a3)
     28a:	8082                	ret
     28c:	6791                	lui	a5,0x4
     28e:	73078793          	addi	a5,a5,1840 # 4730 <font_8x8>
     292:	00f51563          	bne	a0,a5,29c <FONT_Size+0x2a>
     296:	47a1                	li	a5,8
     298:	a19c                	sb	a5,0(a1)
     29a:	b7e5                	j	282 <FONT_Size+0x10>
     29c:	6791                	lui	a5,0x4
     29e:	9f878793          	addi	a5,a5,-1544 # 39f8 <font_16x24>
     2a2:	fef514e3          	bne	a0,a5,28a <FONT_Size+0x18>
     2a6:	47c1                	li	a5,16
     2a8:	a19c                	sb	a5,0(a1)
     2aa:	47e1                	li	a5,24
     2ac:	bfd9                	j	282 <FONT_Size+0x10>

000002ae <HX711_Init>:
     2ae:	ec3ff2ef          	jal	t0,170 <__riscv_save_0>
     2b2:	1141                	addi	sp,sp,-16
     2b4:	478d                	li	a5,3
     2b6:	892a                	mv	s2,a0
     2b8:	4585                	li	a1,1
     2ba:	4511                	li	a0,4
     2bc:	c43e                	sw	a5,8(sp)
     2be:	c202                	sw	zero,4(sp)
     2c0:	c602                	sw	zero,12(sp)
     2c2:	268010ef          	jal	ra,152a <RCC_APB2PeriphClockCmd>
     2c6:	4585                	li	a1,1
     2c8:	4521                	li	a0,8
     2ca:	260010ef          	jal	ra,152a <RCC_APB2PeriphClockCmd>
     2ce:	40011437          	lui	s0,0x40011
     2d2:	77e1                	lui	a5,0xffff8
     2d4:	44c1                	li	s1,16
     2d6:	004c                	addi	a1,sp,4
     2d8:	80040513          	addi	a0,s0,-2048 # 40010800 <_eusrstack+0x2000e000>
     2dc:	827c                	sh	a5,4(sp)
     2de:	c626                	sw	s1,12(sp)
     2e0:	6b1000ef          	jal	ra,1190 <GPIO_Init>
     2e4:	fff90613          	addi	a2,s2,-1
     2e8:	00163613          	seqz	a2,a2
     2ec:	80040513          	addi	a0,s0,-2048
     2f0:	65a1                	lui	a1,0x8
     2f2:	7a5000ef          	jal	ra,1296 <GPIO_WriteBit>
     2f6:	47a1                	li	a5,8
     2f8:	004c                	addi	a1,sp,4
     2fa:	c0040513          	addi	a0,s0,-1024
     2fe:	827c                	sh	a5,4(sp)
     300:	c626                	sw	s1,12(sp)
     302:	68f000ef          	jal	ra,1190 <GPIO_Init>
     306:	c0040513          	addi	a0,s0,-1024
     30a:	45a1                	li	a1,8
     30c:	777000ef          	jal	ra,1282 <GPIO_ResetBits>
     310:	4791                	li	a5,4
     312:	004c                	addi	a1,sp,4
     314:	c0040513          	addi	a0,s0,-1024
     318:	8264                	sh	s1,4(sp)
     31a:	c63e                	sw	a5,12(sp)
     31c:	675000ef          	jal	ra,1190 <GPIO_Init>
     320:	4765                	li	a4,25
     322:	80e18823          	sb	a4,-2032(gp) # 20000090 <_edata>
     326:	0141                	addi	sp,sp,16
     328:	b5b5                	j	194 <__riscv_restore_0>

0000032a <HX711_Ready>:
     32a:	400117b7          	lui	a5,0x40011
     32e:	c0078793          	addi	a5,a5,-1024 # 40010c00 <_eusrstack+0x2000e400>
     332:	479c                	lw	a5,8(a5)
     334:	8bc1                	andi	a5,a5,16
     336:	eb81                	bnez	a5,346 <HX711_Ready+0x1c>
     338:	e39ff2ef          	jal	t0,170 <__riscv_save_0>
     33c:	4505                	li	a0,1
     33e:	2c2010ef          	jal	ra,1600 <Delay_Us>
     342:	4505                	li	a0,1
     344:	bd81                	j	194 <__riscv_restore_0>
     346:	4501                	li	a0,0
     348:	8082                	ret

0000034a <HX711_GetValue>:
     34a:	dffff2ef          	jal	t0,148 <__riscv_save_10>
     34e:	3ff1                	jal	32a <HX711_Ready>
     350:	4401                	li	s0,0
     352:	c539                	beqz	a0,3a0 <HX711_GetValue+0x56>
     354:	4481                	li	s1,0
     356:	4901                	li	s2,0
     358:	4401                	li	s0,0
     35a:	40011b37          	lui	s6,0x40011
     35e:	4a21                	li	s4,8
     360:	4bdd                	li	s7,23
     362:	a81d                	j	398 <HX711_GetValue+0x4e>
     364:	4505                	li	a0,1
     366:	c14b2823          	sw	s4,-1008(s6) # 40010c10 <_eusrstack+0x2000e410>
     36a:	296010ef          	jal	ra,1600 <Delay_Us>
     36e:	4505                	li	a0,1
     370:	c14b2a23          	sw	s4,-1004(s6)
     374:	c00b0993          	addi	s3,s6,-1024
     378:	288010ef          	jal	ra,1600 <Delay_Us>
     37c:	012beb63          	bltu	s7,s2,392 <HX711_GetValue+0x48>
     380:	c08b2503          	lw	a0,-1016(s6)
     384:	0406                	slli	s0,s0,0x1
     386:	0905                	addi	s2,s2,1
     388:	8111                	srli	a0,a0,0x4
     38a:	8905                	andi	a0,a0,1
     38c:	8c49                	or	s0,s0,a0
     38e:	0ff97913          	andi	s2,s2,255
     392:	0485                	addi	s1,s1,1
     394:	0ff4f493          	andi	s1,s1,255
     398:	8101c783          	lbu	a5,-2032(gp) # 20000090 <_edata>
     39c:	fcf4e4e3          	bltu	s1,a5,364 <HX711_GetValue+0x1a>
     3a0:	0422                	slli	s0,s0,0x8
     3a2:	0ff00513          	li	a0,255
     3a6:	02a44533          	div	a0,s0,a0
     3aa:	bbd9                	j	180 <__riscv_restore_10>

000003ac <HX711_Switch>:
     3ac:	8101c703          	lbu	a4,-2032(gp) # 20000090 <_edata>
     3b0:	02a70963          	beq	a4,a0,3e2 <HX711_Switch+0x36>
     3b4:	dbdff2ef          	jal	t0,170 <__riscv_save_0>
     3b8:	81018413          	addi	s0,gp,-2032 # 20000090 <_edata>
     3bc:	84aa                	mv	s1,a0
     3be:	37b5                	jal	32a <HX711_Ready>
     3c0:	e509                	bnez	a0,3ca <HX711_Switch+0x1e>
     3c2:	03200513          	li	a0,50
     3c6:	270010ef          	jal	ra,1636 <Delay_Ms>
     3ca:	a004                	sb	s1,0(s0)
     3cc:	3fbd                	jal	34a <HX711_GetValue>
     3ce:	03200513          	li	a0,50
     3d2:	264010ef          	jal	ra,1636 <Delay_Ms>
     3d6:	3f95                	jal	34a <HX711_GetValue>
     3d8:	3f8d                	jal	34a <HX711_GetValue>
     3da:	3f85                	jal	34a <HX711_GetValue>
     3dc:	37bd                	jal	34a <HX711_GetValue>
     3de:	37b5                	jal	34a <HX711_GetValue>
     3e0:	bb55                	j	194 <__riscv_restore_0>
     3e2:	8082                	ret

000003e4 <GPIOx_Init>:
     3e4:	d8dff2ef          	jal	t0,170 <__riscv_save_0>
     3e8:	1141                	addi	sp,sp,-16
     3ea:	478d                	li	a5,3
     3ec:	4585                	li	a1,1
     3ee:	4511                	li	a0,4
     3f0:	40011437          	lui	s0,0x40011
     3f4:	c43e                	sw	a5,8(sp)
     3f6:	c202                	sw	zero,4(sp)
     3f8:	c602                	sw	zero,12(sp)
     3fa:	130010ef          	jal	ra,152a <RCC_APB2PeriphClockCmd>
     3fe:	4785                	li	a5,1
     400:	4491                	li	s1,4
     402:	004c                	addi	a1,sp,4
     404:	80040513          	addi	a0,s0,-2048 # 40010800 <_eusrstack+0x2000e000>
     408:	827c                	sh	a5,4(sp)
     40a:	c626                	sw	s1,12(sp)
     40c:	585000ef          	jal	ra,1190 <GPIO_Init>
     410:	4789                	li	a5,2
     412:	004c                	addi	a1,sp,4
     414:	80040513          	addi	a0,s0,-2048
     418:	827c                	sh	a5,4(sp)
     41a:	c626                	sw	s1,12(sp)
     41c:	575000ef          	jal	ra,1190 <GPIO_Init>
     420:	0141                	addi	sp,sp,16
     422:	bb8d                	j	194 <__riscv_restore_0>

00000424 <TIMx_Init>:
     424:	d4dff2ef          	jal	t0,170 <__riscv_save_0>
     428:	6505                	lui	a0,0x1
     42a:	4585                	li	a1,1
     42c:	80050513          	addi	a0,a0,-2048 # 800 <__stack_size>
     430:	0fa010ef          	jal	ra,152a <RCC_APB2PeriphClockCmd>
     434:	4585                	li	a1,1
     436:	4505                	li	a0,1
     438:	40013437          	lui	s0,0x40013
     43c:	10c010ef          	jal	ra,1548 <RCC_APB1PeriphClockCmd>
     440:	c0040513          	addi	a0,s0,-1024 # 40012c00 <_eusrstack+0x20010400>
     444:	45c1                	li	a1,16
     446:	13e010ef          	jal	ra,1584 <TIM_CounterModeConfig>
     44a:	4581                	li	a1,0
     44c:	40000537          	lui	a0,0x40000
     450:	134010ef          	jal	ra,1584 <TIM_CounterModeConfig>
     454:	c0040513          	addi	a0,s0,-1024
     458:	3e700593          	li	a1,999
     45c:	176010ef          	jal	ra,15d2 <TIM_SetAutoreload>
     460:	200007b7          	lui	a5,0x20000
     464:	0807a583          	lw	a1,128(a5) # 20000080 <SystemCoreClock>
     468:	3e800793          	li	a5,1000
     46c:	4605                	li	a2,1
     46e:	02f5d5b3          	divu	a1,a1,a5
     472:	c0040513          	addi	a0,s0,-1024
     476:	15fd                	addi	a1,a1,-1
     478:	05c2                	slli	a1,a1,0x10
     47a:	81c1                	srli	a1,a1,0x10
     47c:	102010ef          	jal	ra,157e <TIM_PrescalerConfig>
     480:	c0040513          	addi	a0,s0,-1024
     484:	02000593          	li	a1,32
     488:	11c010ef          	jal	ra,15a4 <TIM_SelectOutputTrigger>
     48c:	4581                	li	a1,0
     48e:	40000537          	lui	a0,0x40000
     492:	102010ef          	jal	ra,1594 <TIM_SelectInputTrigger>
     496:	459d                	li	a1,7
     498:	40000537          	lui	a0,0x40000
     49c:	120010ef          	jal	ra,15bc <TIM_SelectSlaveMode>
     4a0:	4585                	li	a1,1
     4a2:	c0040513          	addi	a0,s0,-1024
     4a6:	0c0010ef          	jal	ra,1566 <TIM_Cmd>
     4aa:	b1ed                	j	194 <__riscv_restore_0>

000004ac <VBAT_Get>:
     4ac:	cabff2ef          	jal	t0,156 <__riscv_save_4>
     4b0:	4569                	li	a0,26
     4b2:	3ded                	jal	3ac <HX711_Switch>
     4b4:	3d9d                	jal	32a <HX711_Ready>
     4b6:	87818413          	addi	s0,gp,-1928 # 200000f8 <vbatBuf>
     4ba:	c919                	beqz	a0,4d0 <VBAT_Get+0x24>
     4bc:	04c00613          	li	a2,76
     4c0:	00440593          	addi	a1,s0,4
     4c4:	87818513          	addi	a0,gp,-1928 # 200000f8 <vbatBuf>
     4c8:	2bb020ef          	jal	ra,2f82 <memmove>
     4cc:	3dbd                	jal	34a <HX711_GetValue>
     4ce:	c468                	sw	a0,76(s0)
     4d0:	000057b7          	lui	a5,0x5
     4d4:	a407ab03          	lw	s6,-1472(a5) # 4a40 <font_8x8+0x310>
     4d8:	000057b7          	lui	a5,0x5
     4dc:	a447aa83          	lw	s5,-1468(a5) # 4a44 <font_8x8+0x314>
     4e0:	000057b7          	lui	a5,0x5
     4e4:	a487aa03          	lw	s4,-1464(a5) # 4a48 <font_8x8+0x318>
     4e8:	000057b7          	lui	a5,0x5
     4ec:	a4c7a983          	lw	s3,-1460(a5) # 4a4c <font_8x8+0x31c>
     4f0:	05040913          	addi	s2,s0,80
     4f4:	00000493          	li	s1,0
     4f8:	4008                	lw	a0,0(s0)
     4fa:	0411                	addi	s0,s0,4
     4fc:	65a020ef          	jal	ra,2b56 <__floatsisf>
     500:	85da                	mv	a1,s6
     502:	413010ef          	jal	ra,2114 <__divsf3>
     506:	85d6                	mv	a1,s5
     508:	7d1010ef          	jal	ra,24d8 <__mulsf3>
     50c:	85d2                	mv	a1,s4
     50e:	7cb010ef          	jal	ra,24d8 <__mulsf3>
     512:	85ce                	mv	a1,s3
     514:	7c5010ef          	jal	ra,24d8 <__mulsf3>
     518:	85aa                	mv	a1,a0
     51a:	8526                	mv	a0,s1
     51c:	08f010ef          	jal	ra,1daa <__addsf3>
     520:	84aa                	mv	s1,a0
     522:	fc891be3          	bne	s2,s0,4f8 <VBAT_Get+0x4c>
     526:	000057b7          	lui	a5,0x5
     52a:	a507a583          	lw	a1,-1456(a5) # 4a50 <font_8x8+0x320>
     52e:	3e7010ef          	jal	ra,2114 <__divsf3>
     532:	5c2020ef          	jal	ra,2af4 <__fixsfsi>
     536:	0542                	slli	a0,a0,0x10
     538:	8141                	srli	a0,a0,0x10
     53a:	b981                	j	18a <__riscv_restore_4>

0000053c <VBAT_WaitStable>:
     53c:	c35ff2ef          	jal	t0,170 <__riscv_save_0>
     540:	4451                	li	s0,20
     542:	37ad                	jal	4ac <VBAT_Get>
     544:	147d                	addi	s0,s0,-1
     546:	4529                	li	a0,10
     548:	0ff47413          	andi	s0,s0,255
     54c:	0ea010ef          	jal	ra,1636 <Delay_Ms>
     550:	f86d                	bnez	s0,542 <VBAT_WaitStable+0x6>
     552:	b189                	j	194 <__riscv_restore_0>

00000554 <SCL_Get>:
     554:	c03ff2ef          	jal	t0,156 <__riscv_save_4>
     558:	4565                	li	a0,25
     55a:	3d89                	jal	3ac <HX711_Switch>
     55c:	33f9                	jal	32a <HX711_Ready>
     55e:	82818413          	addi	s0,gp,-2008 # 200000a8 <sclBuf>
     562:	c919                	beqz	a0,578 <SCL_Get+0x24>
     564:	04c00613          	li	a2,76
     568:	00440593          	addi	a1,s0,4
     56c:	82818513          	addi	a0,gp,-2008 # 200000a8 <sclBuf>
     570:	213020ef          	jal	ra,2f82 <memmove>
     574:	3bd9                	jal	34a <HX711_GetValue>
     576:	c468                	sw	a0,76(s0)
     578:	000057b7          	lui	a5,0x5
     57c:	000054b7          	lui	s1,0x5
     580:	a407aa83          	lw	s5,-1472(a5) # 4a40 <font_8x8+0x310>
     584:	a504aa03          	lw	s4,-1456(s1) # 4a50 <font_8x8+0x320>
     588:	05040993          	addi	s3,s0,80
     58c:	00000913          	li	s2,0
     590:	4008                	lw	a0,0(s0)
     592:	0411                	addi	s0,s0,4
     594:	5c2020ef          	jal	ra,2b56 <__floatsisf>
     598:	85d6                	mv	a1,s5
     59a:	37b010ef          	jal	ra,2114 <__divsf3>
     59e:	85d2                	mv	a1,s4
     5a0:	739010ef          	jal	ra,24d8 <__mulsf3>
     5a4:	85aa                	mv	a1,a0
     5a6:	854a                	mv	a0,s2
     5a8:	003010ef          	jal	ra,1daa <__addsf3>
     5ac:	892a                	mv	s2,a0
     5ae:	fe8991e3          	bne	s3,s0,590 <SCL_Get+0x3c>
     5b2:	a504a583          	lw	a1,-1456(s1)
     5b6:	35f010ef          	jal	ra,2114 <__divsf3>
     5ba:	000057b7          	lui	a5,0x5
     5be:	a307a583          	lw	a1,-1488(a5) # 4a30 <font_8x8+0x300>
     5c2:	717010ef          	jal	ra,24d8 <__mulsf3>
     5c6:	52e020ef          	jal	ra,2af4 <__fixsfsi>
     5ca:	0542                	slli	a0,a0,0x10
     5cc:	8141                	srli	a0,a0,0x10
     5ce:	be75                	j	18a <__riscv_restore_4>

000005d0 <SCL_WaitStable>:
     5d0:	ba1ff2ef          	jal	t0,170 <__riscv_save_0>
     5d4:	4451                	li	s0,20
     5d6:	3fbd                	jal	554 <SCL_Get>
     5d8:	147d                	addi	s0,s0,-1
     5da:	4529                	li	a0,10
     5dc:	0ff47413          	andi	s0,s0,255
     5e0:	056010ef          	jal	ra,1636 <Delay_Ms>
     5e4:	f86d                	bnez	s0,5d6 <SCL_WaitStable+0x6>
     5e6:	b67d                	j	194 <__riscv_restore_0>

000005e8 <SCL_GetGram>:
     5e8:	b89ff2ef          	jal	t0,170 <__riscv_save_0>
     5ec:	37a5                	jal	554 <SCL_Get>
     5ee:	62e020ef          	jal	ra,2c1c <__floatunsisf>
     5f2:	000057b7          	lui	a5,0x5
     5f6:	a347a583          	lw	a1,-1484(a5) # 4a34 <font_8x8+0x304>
     5fa:	6df010ef          	jal	ra,24d8 <__mulsf3>
     5fe:	6ec020ef          	jal	ra,2cea <__extendsfdf2>
     602:	000057b7          	lui	a5,0x5
     606:	a387a603          	lw	a2,-1480(a5) # 4a38 <font_8x8+0x308>
     60a:	a3c7a683          	lw	a3,-1476(a5)
     60e:	05e010ef          	jal	ra,166c <__subdf3>
     612:	784020ef          	jal	ra,2d96 <__truncdfsf2>
     616:	bebd                	j	194 <__riscv_restore_0>

00000618 <main>:
     618:	b29ff2ef          	jal	t0,140 <__riscv_save_12>
     61c:	1141                	addi	sp,sp,-16
     61e:	105000ef          	jal	ra,f22 <SystemInit>
     622:	1eb000ef          	jal	ra,100c <SystemCoreClockUpdate>
     626:	4509                	li	a0,2
     628:	63f000ef          	jal	ra,1466 <NVIC_PriorityGroupConfig>
     62c:	7ab000ef          	jal	ra,15d6 <Delay_Init>
     630:	3b55                	jal	3e4 <GPIOx_Init>
     632:	3bcd                	jal	424 <TIMx_Init>
     634:	4505                	li	a0,1
     636:	39a5                	jal	2ae <HX711_Init>
     638:	67c000ef          	jal	ra,cb4 <OLED_Init>
     63c:	000056b7          	lui	a3,0x5
     640:	a7868693          	addi	a3,a3,-1416 # 4a78 <font_8x8+0x348>
     644:	4605                	li	a2,1
     646:	4585                	li	a1,1
     648:	4505                	li	a0,1
     64a:	04b000ef          	jal	ra,e94 <OLED_Printfc>
     64e:	000056b7          	lui	a3,0x5
     652:	a8868693          	addi	a3,a3,-1400 # 4a88 <font_8x8+0x358>
     656:	4605                	li	a2,1
     658:	4585                	li	a1,1
     65a:	4509                	li	a0,2
     65c:	039000ef          	jal	ra,e94 <OLED_Printfc>
     660:	3df1                	jal	53c <VBAT_WaitStable>
     662:	35a9                	jal	4ac <VBAT_Get>
     664:	6785                	lui	a5,0x1
     666:	c7f78793          	addi	a5,a5,-897 # c7f <pos+0x23>
     66a:	02a7e763          	bltu	a5,a0,698 <main+0x80>
     66e:	000056b7          	lui	a3,0x5
     672:	a9068693          	addi	a3,a3,-1392 # 4a90 <font_8x8+0x360>
     676:	4605                	li	a2,1
     678:	4589                	li	a1,2
     67a:	4501                	li	a0,0
     67c:	019000ef          	jal	ra,e94 <OLED_Printfc>
     680:	3535                	jal	4ac <VBAT_Get>
     682:	000056b7          	lui	a3,0x5
     686:	872a                	mv	a4,a0
     688:	a9868693          	addi	a3,a3,-1384 # 4a98 <font_8x8+0x368>
     68c:	4605                	li	a2,1
     68e:	4581                	li	a1,0
     690:	450d                	li	a0,3
     692:	003000ef          	jal	ra,e94 <OLED_Printfc>
     696:	a001                	j	696 <main+0x7e>
     698:	3e800513          	li	a0,1000
     69c:	79b000ef          	jal	ra,1636 <Delay_Ms>
     6a0:	3f05                	jal	5d0 <SCL_WaitStable>
     6a2:	3799                	jal	5e8 <SCL_GetGram>
     6a4:	842a                	mv	s0,a0
     6a6:	2be9                	jal	c80 <OLED_Clear>
     6a8:	000057b7          	lui	a5,0x5
     6ac:	a607ab83          	lw	s7,-1440(a5) # 4a60 <font_8x8+0x330>
     6b0:	000057b7          	lui	a5,0x5
     6b4:	a647ac03          	lw	s8,-1436(a5) # 4a64 <font_8x8+0x334>
     6b8:	000057b7          	lui	a5,0x5
     6bc:	a5c7ac83          	lw	s9,-1444(a5) # 4a5c <font_8x8+0x32c>
     6c0:	000057b7          	lui	a5,0x5
     6c4:	a547ad03          	lw	s10,-1452(a5) # 4a54 <font_8x8+0x324>
     6c8:	00000b13          	li	s6,0
     6cc:	8a22                	mv	s4,s0
     6ce:	89da                	mv	s3,s6
     6d0:	4481                	li	s1,0
     6d2:	4901                	li	s2,0
     6d4:	400117b7          	lui	a5,0x40011
     6d8:	80078793          	addi	a5,a5,-2048 # 40010800 <_eusrstack+0x2000e000>
     6dc:	4798                	lw	a4,8(a5)
     6de:	8111c683          	lbu	a3,-2031(gp) # 20000091 <tpa_down>
     6e2:	8b05                	andi	a4,a4,1
     6e4:	81118a93          	addi	s5,gp,-2031 # 20000091 <tpa_down>
     6e8:	cf1d                	beqz	a4,726 <main+0x10e>
     6ea:	ee95                	bnez	a3,726 <main+0x10e>
     6ec:	4785                	li	a5,1
     6ee:	00fa8023          	sb	a5,0(s5)
     6f2:	2379                	jal	c80 <OLED_Clear>
     6f4:	000056b7          	lui	a3,0x5
     6f8:	aa068693          	addi	a3,a3,-1376 # 4aa0 <font_8x8+0x370>
     6fc:	4605                	li	a2,1
     6fe:	4589                	li	a1,2
     700:	4501                	li	a0,0
     702:	792000ef          	jal	ra,e94 <OLED_Printfc>
     706:	000ac783          	lbu	a5,0(s5)
     70a:	f7e9                	bnez	a5,6d4 <main+0xbc>
     70c:	4705                	li	a4,1
     70e:	0ee90e63          	beq	s2,a4,80a <__stack_size+0xa>
     712:	02090963          	beqz	s2,744 <main+0x12c>
     716:	4789                	li	a5,2
     718:	20f90a63          	beq	s2,a5,92c <__stack_size+0x12c>
     71c:	478d                	li	a5,3
     71e:	30f90463          	beq	s2,a5,a26 <__stack_size+0x226>
     722:	4901                	li	s2,0
     724:	bf45                	j	6d4 <main+0xbc>
     726:	479c                	lw	a5,8(a5)
     728:	8b85                	andi	a5,a5,1
     72a:	fff1                	bnez	a5,706 <main+0xee>
     72c:	dee9                	beqz	a3,706 <main+0xee>
     72e:	0905                	addi	s2,s2,1
     730:	00000b13          	li	s6,0
     734:	000a8023          	sb	zero,0(s5)
     738:	0ff97913          	andi	s2,s2,255
     73c:	2391                	jal	c80 <OLED_Clear>
     73e:	845a                	mv	s0,s6
     740:	4481                	li	s1,0
     742:	b7d1                	j	706 <main+0xee>
     744:	400117b7          	lui	a5,0x40011
     748:	80078793          	addi	a5,a5,-2048 # 40010800 <_eusrstack+0x2000e000>
     74c:	4794                	lw	a3,8(a5)
     74e:	8121c603          	lbu	a2,-2030(gp) # 20000092 <tpb_down>
     752:	8a89                	andi	a3,a3,2
     754:	81218a93          	addi	s5,gp,-2030 # 20000092 <tpb_down>
     758:	cebd                	beqz	a3,7d6 <main+0x1be>
     75a:	ee35                	bnez	a2,7d6 <main+0x1be>
     75c:	00ea8023          	sb	a4,0(s5)
     760:	2305                	jal	c80 <OLED_Clear>
     762:	000ac783          	lbu	a5,0(s5)
     766:	ebc1                	bnez	a5,7f6 <main+0x1de>
     768:	3541                	jal	5e8 <SCL_GetGram>
     76a:	85d2                	mv	a1,s4
     76c:	000020ef          	jal	ra,276c <__subsf3>
     770:	85ea                	mv	a1,s10
     772:	842a                	mv	s0,a0
     774:	4d9010ef          	jal	ra,244c <__lesf2>
     778:	06054d63          	bltz	a0,7f2 <main+0x1da>
     77c:	000057b7          	lui	a5,0x5
     780:	a587aa83          	lw	s5,-1448(a5) # 4a58 <font_8x8+0x328>
     784:	8522                	mv	a0,s0
     786:	85d6                	mv	a1,s5
     788:	43f010ef          	jal	ra,23c6 <__gesf2>
     78c:	00a05363          	blez	a0,792 <main+0x17a>
     790:	8456                	mv	s0,s5
     792:	8522                	mv	a0,s0
     794:	360020ef          	jal	ra,2af4 <__fixsfsi>
     798:	c42a                	sw	a0,8(sp)
     79a:	3bc020ef          	jal	ra,2b56 <__floatsisf>
     79e:	85aa                	mv	a1,a0
     7a0:	8522                	mv	a0,s0
     7a2:	7cb010ef          	jal	ra,276c <__subsf3>
     7a6:	000057b7          	lui	a5,0x5
     7aa:	a707a583          	lw	a1,-1424(a5) # 4a70 <font_8x8+0x340>
     7ae:	52b010ef          	jal	ra,24d8 <__mulsf3>
     7b2:	342020ef          	jal	ra,2af4 <__fixsfsi>
     7b6:	41f55793          	srai	a5,a0,0x1f
     7ba:	4722                	lw	a4,8(sp)
     7bc:	8d3d                	xor	a0,a0,a5
     7be:	000056b7          	lui	a3,0x5
     7c2:	40f507b3          	sub	a5,a0,a5
     7c6:	aa868693          	addi	a3,a3,-1368 # 4aa8 <font_8x8+0x378>
     7ca:	4605                	li	a2,1
     7cc:	4589                	li	a1,2
     7ce:	4501                	li	a0,0
     7d0:	6c4000ef          	jal	ra,e94 <OLED_Printfc>
     7d4:	b701                	j	6d4 <main+0xbc>
     7d6:	479c                	lw	a5,8(a5)
     7d8:	8b89                	andi	a5,a5,2
     7da:	f7c1                	bnez	a5,762 <main+0x14a>
     7dc:	d259                	beqz	a2,762 <main+0x14a>
     7de:	1f400513          	li	a0,500
     7e2:	000a8023          	sb	zero,0(s5)
     7e6:	651000ef          	jal	ra,1636 <Delay_Ms>
     7ea:	33dd                	jal	5d0 <SCL_WaitStable>
     7ec:	3bf5                	jal	5e8 <SCL_GetGram>
     7ee:	8a2a                	mv	s4,a0
     7f0:	bf8d                	j	762 <main+0x14a>
     7f2:	846a                	mv	s0,s10
     7f4:	bf79                	j	792 <main+0x17a>
     7f6:	000056b7          	lui	a3,0x5
     7fa:	ab068693          	addi	a3,a3,-1360 # 4ab0 <font_8x8+0x380>
     7fe:	4605                	li	a2,1
     800:	4589                	li	a1,2
     802:	4501                	li	a0,0
     804:	690000ef          	jal	ra,e94 <OLED_Printfc>
     808:	b5f1                	j	6d4 <main+0xbc>
     80a:	400117b7          	lui	a5,0x40011
     80e:	80078793          	addi	a5,a5,-2048 # 40010800 <_eusrstack+0x2000e000>
     812:	4798                	lw	a4,8(a5)
     814:	8121c683          	lbu	a3,-2030(gp) # 20000092 <tpb_down>
     818:	8b09                	andi	a4,a4,2
     81a:	81218a93          	addi	s5,gp,-2030 # 20000092 <tpb_down>
     81e:	0a070b63          	beqz	a4,8d4 <__stack_size+0xd4>
     822:	eacd                	bnez	a3,8d4 <__stack_size+0xd4>
     824:	012a8023          	sb	s2,0(s5)
     828:	29a1                	jal	c80 <OLED_Clear>
     82a:	000ac783          	lbu	a5,0(s5)
     82e:	1e079763          	bnez	a5,a1c <__stack_size+0x21c>
     832:	4791                	li	a5,4
     834:	0c97e263          	bltu	a5,s1,8f8 <__stack_size+0xf8>
     838:	0485                	addi	s1,s1,1
     83a:	0ff4f493          	andi	s1,s1,255
     83e:	845a                	mv	s0,s6
     840:	3365                	jal	5e8 <SCL_GetGram>
     842:	85d2                	mv	a1,s4
     844:	729010ef          	jal	ra,276c <__subsf3>
     848:	85de                	mv	a1,s7
     84a:	8aaa                	mv	s5,a0
     84c:	401010ef          	jal	ra,244c <__lesf2>
     850:	0c054c63          	bltz	a0,928 <__stack_size+0x128>
     854:	85e2                	mv	a1,s8
     856:	8556                	mv	a0,s5
     858:	36f010ef          	jal	ra,23c6 <__gesf2>
     85c:	00a05363          	blez	a0,862 <__stack_size+0x62>
     860:	8ae2                	mv	s5,s8
     862:	8556                	mv	a0,s5
     864:	290020ef          	jal	ra,2af4 <__fixsfsi>
     868:	8b2a                	mv	s6,a0
     86a:	854e                	mv	a0,s3
     86c:	288020ef          	jal	ra,2af4 <__fixsfsi>
     870:	c62a                	sw	a0,12(sp)
     872:	2e4020ef          	jal	ra,2b56 <__floatsisf>
     876:	85aa                	mv	a1,a0
     878:	854e                	mv	a0,s3
     87a:	6f3010ef          	jal	ra,276c <__subsf3>
     87e:	00005db7          	lui	s11,0x5
     882:	a70da583          	lw	a1,-1424(s11) # 4a70 <font_8x8+0x340>
     886:	453010ef          	jal	ra,24d8 <__mulsf3>
     88a:	26a020ef          	jal	ra,2af4 <__fixsfsi>
     88e:	c42a                	sw	a0,8(sp)
     890:	855a                	mv	a0,s6
     892:	2c4020ef          	jal	ra,2b56 <__floatsisf>
     896:	85aa                	mv	a1,a0
     898:	8556                	mv	a0,s5
     89a:	6d3010ef          	jal	ra,276c <__subsf3>
     89e:	a70da583          	lw	a1,-1424(s11)
     8a2:	437010ef          	jal	ra,24d8 <__mulsf3>
     8a6:	24e020ef          	jal	ra,2af4 <__fixsfsi>
     8aa:	41f55793          	srai	a5,a0,0x1f
     8ae:	48a2                	lw	a7,8(sp)
     8b0:	4832                	lw	a6,12(sp)
     8b2:	8d3d                	xor	a0,a0,a5
     8b4:	000056b7          	lui	a3,0x5
     8b8:	40f507b3          	sub	a5,a0,a5
     8bc:	875a                	mv	a4,s6
     8be:	ab868693          	addi	a3,a3,-1352 # 4ab8 <font_8x8+0x388>
     8c2:	4605                	li	a2,1
     8c4:	4589                	li	a1,2
     8c6:	4501                	li	a0,0
     8c8:	5cc000ef          	jal	ra,e94 <OLED_Printfc>
     8cc:	8b22                	mv	s6,s0
     8ce:	3309                	jal	5d0 <SCL_WaitStable>
     8d0:	8456                	mv	s0,s5
     8d2:	b509                	j	6d4 <main+0xbc>
     8d4:	479c                	lw	a5,8(a5)
     8d6:	8b89                	andi	a5,a5,2
     8d8:	fba9                	bnez	a5,82a <__stack_size+0x2a>
     8da:	daa1                	beqz	a3,82a <__stack_size+0x2a>
     8dc:	1f400513          	li	a0,500
     8e0:	000a8023          	sb	zero,0(s5)
     8e4:	553000ef          	jal	ra,1636 <Delay_Ms>
     8e8:	31e5                	jal	5d0 <SCL_WaitStable>
     8ea:	39fd                	jal	5e8 <SCL_GetGram>
     8ec:	00000b13          	li	s6,0
     8f0:	8a2a                	mv	s4,a0
     8f2:	845a                	mv	s0,s6
     8f4:	4481                	li	s1,0
     8f6:	bf15                	j	82a <__stack_size+0x2a>
     8f8:	85da                	mv	a1,s6
     8fa:	8522                	mv	a0,s0
     8fc:	671010ef          	jal	ra,276c <__subsf3>
     900:	00000593          	li	a1,0
     904:	89aa                	mv	s3,a0
     906:	347010ef          	jal	ra,244c <__lesf2>
     90a:	00055663          	bgez	a0,916 <__stack_size+0x116>
     90e:	800007b7          	lui	a5,0x80000
     912:	0137c9b3          	xor	s3,a5,s3
     916:	85e6                	mv	a1,s9
     918:	854e                	mv	a0,s3
     91a:	2ad010ef          	jal	ra,23c6 <__gesf2>
     91e:	00a05363          	blez	a0,924 <__stack_size+0x124>
     922:	89e6                	mv	s3,s9
     924:	4481                	li	s1,0
     926:	bf29                	j	840 <__stack_size+0x40>
     928:	8ade                	mv	s5,s7
     92a:	bf25                	j	862 <__stack_size+0x62>
     92c:	400117b7          	lui	a5,0x40011
     930:	80078793          	addi	a5,a5,-2048 # 40010800 <_eusrstack+0x2000e000>
     934:	4794                	lw	a3,8(a5)
     936:	8121c603          	lbu	a2,-2030(gp) # 20000092 <tpb_down>
     93a:	8a89                	andi	a3,a3,2
     93c:	81218a93          	addi	s5,gp,-2030 # 20000092 <tpb_down>
     940:	c6d5                	beqz	a3,9ec <__stack_size+0x1ec>
     942:	e64d                	bnez	a2,9ec <__stack_size+0x1ec>
     944:	00ea8023          	sb	a4,0(s5)
     948:	2e25                	jal	c80 <OLED_Clear>
     94a:	000ac783          	lbu	a5,0(s5)
     94e:	0c079763          	bnez	a5,a1c <__stack_size+0x21c>
     952:	000057b7          	lui	a5,0x5
     956:	a747a583          	lw	a1,-1420(a5) # 4a74 <font_8x8+0x344>
     95a:	8522                	mv	a0,s0
     95c:	26b010ef          	jal	ra,23c6 <__gesf2>
     960:	00a05963          	blez	a0,972 <__stack_size+0x172>
     964:	e499                	bnez	s1,972 <__stack_size+0x172>
     966:	4585                	li	a1,1
     968:	40000537          	lui	a0,0x40000
     96c:	3fb000ef          	jal	ra,1566 <TIM_Cmd>
     970:	4485                	li	s1,1
     972:	399d                	jal	5e8 <SCL_GetGram>
     974:	85d2                	mv	a1,s4
     976:	5f7010ef          	jal	ra,276c <__subsf3>
     97a:	000057b7          	lui	a5,0x5
     97e:	a687aa83          	lw	s5,-1432(a5) # 4a68 <font_8x8+0x338>
     982:	842a                	mv	s0,a0
     984:	85d6                	mv	a1,s5
     986:	2c7010ef          	jal	ra,244c <__lesf2>
     98a:	00054c63          	bltz	a0,9a2 <__stack_size+0x1a2>
     98e:	000057b7          	lui	a5,0x5
     992:	a6c7aa83          	lw	s5,-1428(a5) # 4a6c <font_8x8+0x33c>
     996:	8522                	mv	a0,s0
     998:	85d6                	mv	a1,s5
     99a:	22d010ef          	jal	ra,23c6 <__gesf2>
     99e:	00a05363          	blez	a0,9a4 <__stack_size+0x1a4>
     9a2:	8456                	mv	s0,s5
     9a4:	400007b7          	lui	a5,0x40000
     9a8:	0247da83          	lhu	s5,36(a5) # 40000024 <_eusrstack+0x1fffd824>
     9ac:	25700793          	li	a5,599
     9b0:	4725                	li	a4,9
     9b2:	0ac2                	slli	s5,s5,0x10
     9b4:	010ada93          	srli	s5,s5,0x10
     9b8:	0157e663          	bltu	a5,s5,9c4 <__stack_size+0x1c4>
     9bc:	03c00713          	li	a4,60
     9c0:	02ead733          	divu	a4,s5,a4
     9c4:	8522                	mv	a0,s0
     9c6:	c43a                	sw	a4,8(sp)
     9c8:	12c020ef          	jal	ra,2af4 <__fixsfsi>
     9cc:	03c00793          	li	a5,60
     9d0:	4722                	lw	a4,8(sp)
     9d2:	000056b7          	lui	a3,0x5
     9d6:	882a                	mv	a6,a0
     9d8:	ad068693          	addi	a3,a3,-1328 # 4ad0 <font_8x8+0x3a0>
     9dc:	4605                	li	a2,1
     9de:	4589                	li	a1,2
     9e0:	4501                	li	a0,0
     9e2:	02faf7b3          	remu	a5,s5,a5
     9e6:	217d                	jal	e94 <OLED_Printfc>
     9e8:	36e5                	jal	5d0 <SCL_WaitStable>
     9ea:	b1ed                	j	6d4 <main+0xbc>
     9ec:	479c                	lw	a5,8(a5)
     9ee:	8b89                	andi	a5,a5,2
     9f0:	ffa9                	bnez	a5,94a <__stack_size+0x14a>
     9f2:	de21                	beqz	a2,94a <__stack_size+0x14a>
     9f4:	1f400513          	li	a0,500
     9f8:	000a8023          	sb	zero,0(s5)
     9fc:	43b000ef          	jal	ra,1636 <Delay_Ms>
     a00:	3ec1                	jal	5d0 <SCL_WaitStable>
     a02:	36dd                	jal	5e8 <SCL_GetGram>
     a04:	8a2a                	mv	s4,a0
     a06:	4581                	li	a1,0
     a08:	40000537          	lui	a0,0x40000
     a0c:	35b000ef          	jal	ra,1566 <TIM_Cmd>
     a10:	400007b7          	lui	a5,0x40000
     a14:	02079223          	sh	zero,36(a5) # 40000024 <_eusrstack+0x1fffd824>
     a18:	4481                	li	s1,0
     a1a:	bf05                	j	94a <__stack_size+0x14a>
     a1c:	000056b7          	lui	a3,0x5
     a20:	ac868693          	addi	a3,a3,-1336 # 4ac8 <font_8x8+0x398>
     a24:	bbe9                	j	7fe <main+0x1e6>
     a26:	3459                	jal	4ac <VBAT_Get>
     a28:	3e800793          	li	a5,1000
     a2c:	02f55733          	divu	a4,a0,a5
     a30:	000056b7          	lui	a3,0x5
     a34:	ae068693          	addi	a3,a3,-1312 # 4ae0 <font_8x8+0x3b0>
     a38:	0742                	slli	a4,a4,0x10
     a3a:	02f577b3          	remu	a5,a0,a5
     a3e:	8341                	srli	a4,a4,0x10
     a40:	b369                	j	7ca <main+0x1b2>

00000a42 <IIC_Init>:
     a42:	f14ff2ef          	jal	t0,156 <__riscv_save_4>
     a46:	1101                	addi	sp,sp,-32
     a48:	89aa                	mv	s3,a0
     a4a:	4585                	li	a1,1
     a4c:	4521                	li	a0,8
     a4e:	c202                	sw	zero,4(sp)
     a50:	c402                	sw	zero,8(sp)
     a52:	c602                	sw	zero,12(sp)
     a54:	c802                	sw	zero,16(sp)
     a56:	ca02                	sw	zero,20(sp)
     a58:	cc02                	sw	zero,24(sp)
     a5a:	ce02                	sw	zero,28(sp)
     a5c:	2cf000ef          	jal	ra,152a <RCC_APB2PeriphClockCmd>
     a60:	4585                	li	a1,1
     a62:	00200537          	lui	a0,0x200
     a66:	2e3000ef          	jal	ra,1548 <RCC_APB1PeriphClockCmd>
     a6a:	40011437          	lui	s0,0x40011
     a6e:	04000793          	li	a5,64
     a72:	4971                	li	s2,28
     a74:	448d                	li	s1,3
     a76:	004c                	addi	a1,sp,4
     a78:	c0040513          	addi	a0,s0,-1024 # 40010c00 <_eusrstack+0x2000e400>
     a7c:	827c                	sh	a5,4(sp)
     a7e:	c64a                	sw	s2,12(sp)
     a80:	c426                	sw	s1,8(sp)
     a82:	70e000ef          	jal	ra,1190 <GPIO_Init>
     a86:	08000793          	li	a5,128
     a8a:	004c                	addi	a1,sp,4
     a8c:	c0040513          	addi	a0,s0,-1024
     a90:	827c                	sh	a5,4(sp)
     a92:	c64a                	sw	s2,12(sp)
     a94:	c426                	sw	s1,8(sp)
     a96:	6fa000ef          	jal	ra,1190 <GPIO_Init>
     a9a:	bfff07b7          	lui	a5,0xbfff0
     a9e:	ca3e                	sw	a5,20(sp)
     aa0:	040007b7          	lui	a5,0x4000
     aa4:	40005437          	lui	s0,0x40005
     aa8:	0fe78793          	addi	a5,a5,254 # 40000fe <_data_lma+0x3ffb416>
     aac:	cc3e                	sw	a5,24(sp)
     aae:	080c                	addi	a1,sp,16
     ab0:	6791                	lui	a5,0x4
     ab2:	40040513          	addi	a0,s0,1024 # 40005400 <_eusrstack+0x20002c00>
     ab6:	86fc                	sh	a5,28(sp)
     ab8:	c84e                	sw	s3,16(sp)
     aba:	7f6000ef          	jal	ra,12b0 <I2C_Init>
     abe:	40040513          	addi	a0,s0,1024
     ac2:	4585                	li	a1,1
     ac4:	0df000ef          	jal	ra,13a2 <I2C_Cmd>
     ac8:	4585                	li	a1,1
     aca:	40040513          	addi	a0,s0,1024
     ace:	121000ef          	jal	ra,13ee <I2C_AcknowledgeConfig>
     ad2:	6105                	addi	sp,sp,32
     ad4:	eb6ff06f          	j	18a <__riscv_restore_4>

00000ad8 <cmd>:
     ad8:	e7eff2ef          	jal	t0,156 <__riscv_save_4>
     adc:	40005437          	lui	s0,0x40005
     ae0:	892a                	mv	s2,a0
     ae2:	40040493          	addi	s1,s0,1024 # 40005400 <_eusrstack+0x20002c00>
     ae6:	000205b7          	lui	a1,0x20
     aea:	8526                	mv	a0,s1
     aec:	149000ef          	jal	ra,1434 <I2C_GetFlagStatus>
     af0:	f97d                	bnez	a0,ae6 <cmd+0xe>
     af2:	40040513          	addi	a0,s0,1024
     af6:	4585                	li	a1,1
     af8:	00030437          	lui	s0,0x30
     afc:	400054b7          	lui	s1,0x40005
     b00:	0bb000ef          	jal	ra,13ba <I2C_GenerateSTART>
     b04:	0405                	addi	s0,s0,1
     b06:	40048993          	addi	s3,s1,1024 # 40005400 <_eusrstack+0x20002c00>
     b0a:	85a2                	mv	a1,s0
     b0c:	854e                	mv	a0,s3
     b0e:	111000ef          	jal	ra,141e <I2C_CheckEvent>
     b12:	dd65                	beqz	a0,b0a <cmd+0x32>
     b14:	40048513          	addi	a0,s1,1024
     b18:	4601                	li	a2,0
     b1a:	07800593          	li	a1,120
     b1e:	00070437          	lui	s0,0x70
     b22:	400054b7          	lui	s1,0x40005
     b26:	0e7000ef          	jal	ra,140c <I2C_Send7bitAddress>
     b2a:	08240413          	addi	s0,s0,130 # 70082 <_data_lma+0x6b39a>
     b2e:	40048993          	addi	s3,s1,1024 # 40005400 <_eusrstack+0x20002c00>
     b32:	85a2                	mv	a1,s0
     b34:	854e                	mv	a0,s3
     b36:	0e9000ef          	jal	ra,141e <I2C_CheckEvent>
     b3a:	dd65                	beqz	a0,b32 <cmd+0x5a>
     b3c:	40048513          	addi	a0,s1,1024
     b40:	4581                	li	a1,0
     b42:	00070437          	lui	s0,0x70
     b46:	400054b7          	lui	s1,0x40005
     b4a:	0bf000ef          	jal	ra,1408 <I2C_SendData>
     b4e:	08440413          	addi	s0,s0,132 # 70084 <_data_lma+0x6b39c>
     b52:	40048993          	addi	s3,s1,1024 # 40005400 <_eusrstack+0x20002c00>
     b56:	85a2                	mv	a1,s0
     b58:	854e                	mv	a0,s3
     b5a:	0c5000ef          	jal	ra,141e <I2C_CheckEvent>
     b5e:	dd65                	beqz	a0,b56 <cmd+0x7e>
     b60:	85ca                	mv	a1,s2
     b62:	40048513          	addi	a0,s1,1024
     b66:	00070437          	lui	s0,0x70
     b6a:	400054b7          	lui	s1,0x40005
     b6e:	09b000ef          	jal	ra,1408 <I2C_SendData>
     b72:	08440413          	addi	s0,s0,132 # 70084 <_data_lma+0x6b39c>
     b76:	40048913          	addi	s2,s1,1024 # 40005400 <_eusrstack+0x20002c00>
     b7a:	85a2                	mv	a1,s0
     b7c:	854a                	mv	a0,s2
     b7e:	0a1000ef          	jal	ra,141e <I2C_CheckEvent>
     b82:	dd65                	beqz	a0,b7a <cmd+0xa2>
     b84:	4585                	li	a1,1
     b86:	40048513          	addi	a0,s1,1024
     b8a:	04b000ef          	jal	ra,13d4 <I2C_GenerateSTOP>
     b8e:	dfcff06f          	j	18a <__riscv_restore_4>

00000b92 <dats>:
     b92:	dc4ff2ef          	jal	t0,156 <__riscv_save_4>
     b96:	400054b7          	lui	s1,0x40005
     b9a:	842a                	mv	s0,a0
     b9c:	892e                	mv	s2,a1
     b9e:	40048993          	addi	s3,s1,1024 # 40005400 <_eusrstack+0x20002c00>
     ba2:	000205b7          	lui	a1,0x20
     ba6:	854e                	mv	a0,s3
     ba8:	08d000ef          	jal	ra,1434 <I2C_GetFlagStatus>
     bac:	f97d                	bnez	a0,ba2 <dats+0x10>
     bae:	40048513          	addi	a0,s1,1024
     bb2:	4585                	li	a1,1
     bb4:	000304b7          	lui	s1,0x30
     bb8:	400059b7          	lui	s3,0x40005
     bbc:	7fe000ef          	jal	ra,13ba <I2C_GenerateSTART>
     bc0:	0485                	addi	s1,s1,1
     bc2:	40098a13          	addi	s4,s3,1024 # 40005400 <_eusrstack+0x20002c00>
     bc6:	85a6                	mv	a1,s1
     bc8:	8552                	mv	a0,s4
     bca:	055000ef          	jal	ra,141e <I2C_CheckEvent>
     bce:	dd65                	beqz	a0,bc6 <dats+0x34>
     bd0:	40098513          	addi	a0,s3,1024
     bd4:	4601                	li	a2,0
     bd6:	07800593          	li	a1,120
     bda:	000704b7          	lui	s1,0x70
     bde:	400059b7          	lui	s3,0x40005
     be2:	02b000ef          	jal	ra,140c <I2C_Send7bitAddress>
     be6:	08248493          	addi	s1,s1,130 # 70082 <_data_lma+0x6b39a>
     bea:	40098a13          	addi	s4,s3,1024 # 40005400 <_eusrstack+0x20002c00>
     bee:	85a6                	mv	a1,s1
     bf0:	8552                	mv	a0,s4
     bf2:	02d000ef          	jal	ra,141e <I2C_CheckEvent>
     bf6:	dd65                	beqz	a0,bee <dats+0x5c>
     bf8:	40098513          	addi	a0,s3,1024
     bfc:	04000593          	li	a1,64
     c00:	000709b7          	lui	s3,0x70
     c04:	400054b7          	lui	s1,0x40005
     c08:	001000ef          	jal	ra,1408 <I2C_SendData>
     c0c:	08498993          	addi	s3,s3,132 # 70084 <_data_lma+0x6b39c>
     c10:	40048493          	addi	s1,s1,1024 # 40005400 <_eusrstack+0x20002c00>
     c14:	85ce                	mv	a1,s3
     c16:	8526                	mv	a0,s1
     c18:	007000ef          	jal	ra,141e <I2C_CheckEvent>
     c1c:	dd65                	beqz	a0,c14 <dats+0x82>
     c1e:	400054b7          	lui	s1,0x40005
     c22:	000709b7          	lui	s3,0x70
     c26:	9922                	add	s2,s2,s0
     c28:	40048493          	addi	s1,s1,1024 # 40005400 <_eusrstack+0x20002c00>
     c2c:	08498993          	addi	s3,s3,132 # 70084 <_data_lma+0x6b39c>
     c30:	01241b63          	bne	s0,s2,c46 <dats+0xb4>
     c34:	40005537          	lui	a0,0x40005
     c38:	4585                	li	a1,1
     c3a:	40050513          	addi	a0,a0,1024 # 40005400 <_eusrstack+0x20002c00>
     c3e:	796000ef          	jal	ra,13d4 <I2C_GenerateSTOP>
     c42:	d48ff06f          	j	18a <__riscv_restore_4>
     c46:	200c                	lbu	a1,0(s0)
     c48:	8526                	mv	a0,s1
     c4a:	7be000ef          	jal	ra,1408 <I2C_SendData>
     c4e:	85ce                	mv	a1,s3
     c50:	8526                	mv	a0,s1
     c52:	7cc000ef          	jal	ra,141e <I2C_CheckEvent>
     c56:	dd65                	beqz	a0,c4e <dats+0xbc>
     c58:	0405                	addi	s0,s0,1
     c5a:	bfd9                	j	c30 <dats+0x9e>

00000c5c <pos>:
     c5c:	d14ff2ef          	jal	t0,170 <__riscv_save_0>
     c60:	fb058593          	addi	a1,a1,-80 # 1ffb0 <_data_lma+0x1b2c8>
     c64:	842a                	mv	s0,a0
     c66:	0ff5f513          	andi	a0,a1,255
     c6a:	35bd                	jal	ad8 <cmd>
     c6c:	00445513          	srli	a0,s0,0x4
     c70:	01056513          	ori	a0,a0,16
     c74:	3595                	jal	ad8 <cmd>
     c76:	00f47513          	andi	a0,s0,15
     c7a:	3db9                	jal	ad8 <cmd>
     c7c:	d18ff06f          	j	194 <__riscv_restore_0>

00000c80 <OLED_Clear>:
     c80:	cf0ff2ef          	jal	t0,170 <__riscv_save_0>
     c84:	4401                	li	s0,0
     c86:	4911                	li	s2,4
     c88:	85a2                	mv	a1,s0
     c8a:	4501                	li	a0,0
     c8c:	3fc1                	jal	c5c <pos>
     c8e:	08000613          	li	a2,128
     c92:	4581                	li	a1,0
     c94:	8c818513          	addi	a0,gp,-1848 # 20000148 <buffer>
     c98:	d08ff0ef          	jal	ra,1a0 <memset>
     c9c:	0405                	addi	s0,s0,1
     c9e:	08000593          	li	a1,128
     ca2:	8c818513          	addi	a0,gp,-1848 # 20000148 <buffer>
     ca6:	0ff47413          	andi	s0,s0,255
     caa:	35e5                	jal	b92 <dats>
     cac:	fd241ee3          	bne	s0,s2,c88 <OLED_Clear+0x8>
     cb0:	ce4ff06f          	j	194 <__riscv_restore_0>

00000cb4 <OLED_Init>:
     cb4:	cbcff2ef          	jal	t0,170 <__riscv_save_0>
     cb8:	00062537          	lui	a0,0x62
     cbc:	a8050513          	addi	a0,a0,-1408 # 61a80 <_data_lma+0x5cd98>
     cc0:	3349                	jal	a42 <IIC_Init>
     cc2:	0ae00513          	li	a0,174
     cc6:	3d09                	jal	ad8 <cmd>
     cc8:	0d500513          	li	a0,213
     ccc:	3531                	jal	ad8 <cmd>
     cce:	08000513          	li	a0,128
     cd2:	3519                	jal	ad8 <cmd>
     cd4:	0a800513          	li	a0,168
     cd8:	3501                	jal	ad8 <cmd>
     cda:	457d                	li	a0,31
     cdc:	3bf5                	jal	ad8 <cmd>
     cde:	0ad00513          	li	a0,173
     ce2:	3bdd                	jal	ad8 <cmd>
     ce4:	04000513          	li	a0,64
     ce8:	3bc5                	jal	ad8 <cmd>
     cea:	0d300513          	li	a0,211
     cee:	33ed                	jal	ad8 <cmd>
     cf0:	03000513          	li	a0,48
     cf4:	33d5                	jal	ad8 <cmd>
     cf6:	02000513          	li	a0,32
     cfa:	3bf9                	jal	ad8 <cmd>
     cfc:	4509                	li	a0,2
     cfe:	3be9                	jal	ad8 <cmd>
     d00:	0a100513          	li	a0,161
     d04:	3bd1                	jal	ad8 <cmd>
     d06:	0c000513          	li	a0,192
     d0a:	33f9                	jal	ad8 <cmd>
     d0c:	08100513          	li	a0,129
     d10:	33e1                	jal	ad8 <cmd>
     d12:	02b00513          	li	a0,43
     d16:	33c9                	jal	ad8 <cmd>
     d18:	0d900513          	li	a0,217
     d1c:	3b75                	jal	ad8 <cmd>
     d1e:	02200513          	li	a0,34
     d22:	3b5d                	jal	ad8 <cmd>
     d24:	0db00513          	li	a0,219
     d28:	3b45                	jal	ad8 <cmd>
     d2a:	02000513          	li	a0,32
     d2e:	336d                	jal	ad8 <cmd>
     d30:	0a400513          	li	a0,164
     d34:	3355                	jal	ad8 <cmd>
     d36:	08d00513          	li	a0,141
     d3a:	3b79                	jal	ad8 <cmd>
     d3c:	07200513          	li	a0,114
     d40:	3b61                	jal	ad8 <cmd>
     d42:	3f3d                	jal	c80 <OLED_Clear>
     d44:	0af00513          	li	a0,175
     d48:	3b41                	jal	ad8 <cmd>
     d4a:	c4aff06f          	j	194 <__riscv_restore_0>

00000d4e <OLED_Char>:
     d4e:	bfaff2ef          	jal	t0,148 <__riscv_save_10>
     d52:	1141                	addi	sp,sp,-16
     d54:	8aaa                	mv	s5,a0
     d56:	8532                	mv	a0,a2
     d58:	843a                	mv	s0,a4
     d5a:	8b2e                	mv	s6,a1
     d5c:	89b6                	mv	s3,a3
     d5e:	cf0ff0ef          	jal	ra,24e <FONT_Get>
     d62:	00f10693          	addi	a3,sp,15
     d66:	00e10613          	addi	a2,sp,14
     d6a:	00d10593          	addi	a1,sp,13
     d6e:	892a                	mv	s2,a0
     d70:	d02ff0ef          	jal	ra,272 <FONT_Size>
     d74:	8798                	lbu	a4,15(sp)
     d76:	08000793          	li	a5,128
     d7a:	8c19                	sub	s0,s0,a4
     d7c:	8698                	lbu	a4,13(sp)
     d7e:	0462                	slli	s0,s0,0x18
     d80:	8461                	srai	s0,s0,0x18
     d82:	8f99                	sub	a5,a5,a4
     d84:	0157d863          	bge	a5,s5,d94 <OLED_Char+0x46>
     d88:	870c                	lbu	a1,14(sp)
     d8a:	4a81                	li	s5,0
     d8c:	818d                	srli	a1,a1,0x3
     d8e:	95da                	add	a1,a1,s6
     d90:	0ff5fb13          	andi	s6,a1,255
     d94:	4a01                	li	s4,0
     d96:	4ba1                	li	s7,8
     d98:	8c818493          	addi	s1,gp,-1848 # 20000148 <buffer>
     d9c:	871c                	lbu	a5,14(sp)
     d9e:	0ffa7593          	andi	a1,s4,255
     da2:	0037d713          	srli	a4,a5,0x3
     da6:	04e5f963          	bgeu	a1,a4,df8 <OLED_Char+0xaa>
     daa:	8690                	lbu	a2,13(sp)
     dac:	4681                	li	a3,0
     dae:	02c787b3          	mul	a5,a5,a2
     db2:	028787b3          	mul	a5,a5,s0
     db6:	0377c7b3          	div	a5,a5,s7
     dba:	03460733          	mul	a4,a2,s4
     dbe:	97ba                	add	a5,a5,a4
     dc0:	a819                	j	dd6 <OLED_Char+0x88>
     dc2:	00f68733          	add	a4,a3,a5
     dc6:	974a                	add	a4,a4,s2
     dc8:	2318                	lbu	a4,0(a4)
     dca:	00d48533          	add	a0,s1,a3
     dce:	02098263          	beqz	s3,df2 <OLED_Char+0xa4>
     dd2:	a118                	sb	a4,0(a0)
     dd4:	0685                	addi	a3,a3,1
     dd6:	0ff6f713          	andi	a4,a3,255
     dda:	fec764e3          	bltu	a4,a2,dc2 <OLED_Char+0x74>
     dde:	95da                	add	a1,a1,s6
     de0:	0ff5f593          	andi	a1,a1,255
     de4:	8556                	mv	a0,s5
     de6:	3d9d                	jal	c5c <pos>
     de8:	868c                	lbu	a1,13(sp)
     dea:	8526                	mv	a0,s1
     dec:	0a05                	addi	s4,s4,1
     dee:	3355                	jal	b92 <dats>
     df0:	b775                	j	d9c <OLED_Char+0x4e>
     df2:	fff74713          	not	a4,a4
     df6:	bff1                	j	dd2 <OLED_Char+0x84>
     df8:	0141                	addi	sp,sp,16
     dfa:	b86ff06f          	j	180 <__riscv_restore_10>

00000dfe <OLED_Print>:
     dfe:	b4aff2ef          	jal	t0,148 <__riscv_save_10>
     e02:	1141                	addi	sp,sp,-16
     e04:	842a                	mv	s0,a0
     e06:	8532                	mv	a0,a2
     e08:	84ae                	mv	s1,a1
     e0a:	89b2                	mv	s3,a2
     e0c:	8a36                	mv	s4,a3
     e0e:	893a                	mv	s2,a4
     e10:	c3eff0ef          	jal	ra,24e <FONT_Get>
     e14:	00f10693          	addi	a3,sp,15
     e18:	00e10613          	addi	a2,sp,14
     e1c:	00d10593          	addi	a1,sp,13
     e20:	c52ff0ef          	jal	ra,272 <FONT_Size>
     e24:	02000a93          	li	s5,32
     e28:	000107a3          	sb	zero,15(sp)
     e2c:	4b21                	li	s6,8
     e2e:	4ba9                	li	s7,10
     e30:	08000c13          	li	s8,128
     e34:	879c                	lbu	a5,15(sp)
     e36:	97ca                	add	a5,a5,s2
     e38:	00078783          	lb	a5,0(a5) # 4000 <font_16x24+0x608>
     e3c:	e781                	bnez	a5,e44 <OLED_Print+0x46>
     e3e:	0141                	addi	sp,sp,16
     e40:	b40ff06f          	j	180 <__riscv_restore_10>
     e44:	871c                	lbu	a5,14(sp)
     e46:	40fa87b3          	sub	a5,s5,a5
     e4a:	0367c7b3          	div	a5,a5,s6
     e4e:	0097d563          	bge	a5,s1,e58 <OLED_Print+0x5a>
     e52:	353d                	jal	c80 <OLED_Clear>
     e54:	4481                	li	s1,0
     e56:	4401                	li	s0,0
     e58:	879c                	lbu	a5,15(sp)
     e5a:	97ca                	add	a5,a5,s2
     e5c:	00078703          	lb	a4,0(a5)
     e60:	01771963          	bne	a4,s7,e72 <OLED_Print+0x74>
     e64:	871c                	lbu	a5,14(sp)
     e66:	4401                	li	s0,0
     e68:	838d                	srli	a5,a5,0x3
     e6a:	94be                	add	s1,s1,a5
     e6c:	0ff4f493          	andi	s1,s1,255
     e70:	a831                	j	e8c <OLED_Print+0x8e>
     e72:	8522                	mv	a0,s0
     e74:	86d2                	mv	a3,s4
     e76:	864e                	mv	a2,s3
     e78:	85a6                	mv	a1,s1
     e7a:	3dd1                	jal	d4e <OLED_Char>
     e7c:	869c                	lbu	a5,13(sp)
     e7e:	943e                	add	s0,s0,a5
     e80:	0ff47413          	andi	s0,s0,255
     e84:	40fc07b3          	sub	a5,s8,a5
     e88:	fc87cee3          	blt	a5,s0,e64 <OLED_Print+0x66>
     e8c:	879c                	lbu	a5,15(sp)
     e8e:	0785                	addi	a5,a5,1
     e90:	87dc                	sb	a5,15(sp)
     e92:	b74d                	j	e34 <OLED_Print+0x36>

00000e94 <OLED_Printfc>:
     e94:	7139                	addi	sp,sp,-64
     e96:	ce4e                	sw	s3,28(sp)
     e98:	89aa                	mv	s3,a0
     e9a:	852e                	mv	a0,a1
     e9c:	d606                	sw	ra,44(sp)
     e9e:	d422                	sw	s0,40(sp)
     ea0:	d226                	sw	s1,36(sp)
     ea2:	d04a                	sw	s2,32(sp)
     ea4:	cc52                	sw	s4,24(sp)
     ea6:	dc42                	sw	a6,56(sp)
     ea8:	de46                	sw	a7,60(sp)
     eaa:	d83a                	sw	a4,48(sp)
     eac:	da3e                	sw	a5,52(sp)
     eae:	84ae                	mv	s1,a1
     eb0:	8a32                	mv	s4,a2
     eb2:	8936                	mv	s2,a3
     eb4:	b9aff0ef          	jal	ra,24e <FONT_Get>
     eb8:	00b10693          	addi	a3,sp,11
     ebc:	00a10613          	addi	a2,sp,10
     ec0:	00910593          	addi	a1,sp,9
     ec4:	baeff0ef          	jal	ra,272 <FONT_Size>
     ec8:	4541                	li	a0,16
     eca:	0a4020ef          	jal	ra,2f6e <malloc>
     ece:	1810                	addi	a2,sp,48
     ed0:	85ca                	mv	a1,s2
     ed2:	842a                	mv	s0,a0
     ed4:	c632                	sw	a2,12(sp)
     ed6:	2cc020ef          	jal	ra,31a2 <vsiprintf>
     eda:	892a                	mv	s2,a0
     edc:	8522                	mv	a0,s0
     ede:	286020ef          	jal	ra,3164 <strlen>
     ee2:	849c                	lbu	a5,9(sp)
     ee4:	85c8                	sb	a0,11(sp)
     ee6:	0ff57513          	andi	a0,a0,255
     eea:	02f50533          	mul	a0,a0,a5
     eee:	4789                	li	a5,2
     ef0:	8722                	mv	a4,s0
     ef2:	86d2                	mv	a3,s4
     ef4:	8626                	mv	a2,s1
     ef6:	85ce                	mv	a1,s3
     ef8:	02f54533          	div	a0,a0,a5
     efc:	40a00533          	neg	a0,a0
     f00:	04050513          	addi	a0,a0,64
     f04:	0ff57513          	andi	a0,a0,255
     f08:	3ddd                	jal	dfe <OLED_Print>
     f0a:	8522                	mv	a0,s0
     f0c:	06c020ef          	jal	ra,2f78 <free>
     f10:	50b2                	lw	ra,44(sp)
     f12:	5422                	lw	s0,40(sp)
     f14:	854a                	mv	a0,s2
     f16:	5492                	lw	s1,36(sp)
     f18:	5902                	lw	s2,32(sp)
     f1a:	49f2                	lw	s3,28(sp)
     f1c:	4a62                	lw	s4,24(sp)
     f1e:	6121                	addi	sp,sp,64
     f20:	8082                	ret

00000f22 <SystemInit>:
     f22:	400217b7          	lui	a5,0x40021
     f26:	4398                	lw	a4,0(a5)
     f28:	f8ff06b7          	lui	a3,0xf8ff0
     f2c:	1141                	addi	sp,sp,-16
     f2e:	00176713          	ori	a4,a4,1
     f32:	c398                	sw	a4,0(a5)
     f34:	43d8                	lw	a4,4(a5)
     f36:	00020637          	lui	a2,0x20
     f3a:	8f75                	and	a4,a4,a3
     f3c:	c3d8                	sw	a4,4(a5)
     f3e:	4398                	lw	a4,0(a5)
     f40:	fef706b7          	lui	a3,0xfef70
     f44:	16fd                	addi	a3,a3,-1
     f46:	8f75                	and	a4,a4,a3
     f48:	c398                	sw	a4,0(a5)
     f4a:	4398                	lw	a4,0(a5)
     f4c:	fffc06b7          	lui	a3,0xfffc0
     f50:	16fd                	addi	a3,a3,-1
     f52:	8f75                	and	a4,a4,a3
     f54:	c398                	sw	a4,0(a5)
     f56:	43d8                	lw	a4,4(a5)
     f58:	ff8106b7          	lui	a3,0xff810
     f5c:	16fd                	addi	a3,a3,-1
     f5e:	8f75                	and	a4,a4,a3
     f60:	c3d8                	sw	a4,4(a5)
     f62:	009f0737          	lui	a4,0x9f0
     f66:	c798                	sw	a4,8(a5)
     f68:	c402                	sw	zero,8(sp)
     f6a:	c602                	sw	zero,12(sp)
     f6c:	4398                	lw	a4,0(a5)
     f6e:	66c1                	lui	a3,0x10
     f70:	8f55                	or	a4,a4,a3
     f72:	c398                	sw	a4,0(a5)
     f74:	400216b7          	lui	a3,0x40021
     f78:	6705                	lui	a4,0x1
     f7a:	429c                	lw	a5,0(a3)
     f7c:	8ff1                	and	a5,a5,a2
     f7e:	c63e                	sw	a5,12(sp)
     f80:	47a2                	lw	a5,8(sp)
     f82:	0785                	addi	a5,a5,1
     f84:	c43e                	sw	a5,8(sp)
     f86:	47b2                	lw	a5,12(sp)
     f88:	e781                	bnez	a5,f90 <SystemInit+0x6e>
     f8a:	47a2                	lw	a5,8(sp)
     f8c:	fee797e3          	bne	a5,a4,f7a <SystemInit+0x58>
     f90:	400217b7          	lui	a5,0x40021
     f94:	439c                	lw	a5,0(a5)
     f96:	00e79713          	slli	a4,a5,0xe
     f9a:	06075763          	bgez	a4,1008 <SystemInit+0xe6>
     f9e:	4785                	li	a5,1
     fa0:	c63e                	sw	a5,12(sp)
     fa2:	4732                	lw	a4,12(sp)
     fa4:	4785                	li	a5,1
     fa6:	04f71f63          	bne	a4,a5,1004 <SystemInit+0xe2>
     faa:	400217b7          	lui	a5,0x40021
     fae:	43d8                	lw	a4,4(a5)
     fb0:	ffc106b7          	lui	a3,0xffc10
     fb4:	16fd                	addi	a3,a3,-1
     fb6:	c3d8                	sw	a4,4(a5)
     fb8:	43d8                	lw	a4,4(a5)
     fba:	c3d8                	sw	a4,4(a5)
     fbc:	43d8                	lw	a4,4(a5)
     fbe:	40076713          	ori	a4,a4,1024
     fc2:	c3d8                	sw	a4,4(a5)
     fc4:	43d8                	lw	a4,4(a5)
     fc6:	8f75                	and	a4,a4,a3
     fc8:	c3d8                	sw	a4,4(a5)
     fca:	43d8                	lw	a4,4(a5)
     fcc:	001106b7          	lui	a3,0x110
     fd0:	8f55                	or	a4,a4,a3
     fd2:	c3d8                	sw	a4,4(a5)
     fd4:	4398                	lw	a4,0(a5)
     fd6:	010006b7          	lui	a3,0x1000
     fda:	8f55                	or	a4,a4,a3
     fdc:	c398                	sw	a4,0(a5)
     fde:	4398                	lw	a4,0(a5)
     fe0:	00671693          	slli	a3,a4,0x6
     fe4:	fe06dde3          	bgez	a3,fde <SystemInit+0xbc>
     fe8:	43d8                	lw	a4,4(a5)
     fea:	400216b7          	lui	a3,0x40021
     fee:	9b71                	andi	a4,a4,-4
     ff0:	c3d8                	sw	a4,4(a5)
     ff2:	43d8                	lw	a4,4(a5)
     ff4:	00276713          	ori	a4,a4,2
     ff8:	c3d8                	sw	a4,4(a5)
     ffa:	4721                	li	a4,8
     ffc:	42dc                	lw	a5,4(a3)
     ffe:	8bb1                	andi	a5,a5,12
    1000:	fee79ee3          	bne	a5,a4,ffc <SystemInit+0xda>
    1004:	0141                	addi	sp,sp,16
    1006:	8082                	ret
    1008:	c602                	sw	zero,12(sp)
    100a:	bf61                	j	fa2 <SystemInit+0x80>

0000100c <SystemCoreClockUpdate>:
    100c:	400216b7          	lui	a3,0x40021
    1010:	42dc                	lw	a5,4(a3)
    1012:	20000737          	lui	a4,0x20000
    1016:	4611                	li	a2,4
    1018:	8bb1                	andi	a5,a5,12
    101a:	08070713          	addi	a4,a4,128 # 20000080 <SystemCoreClock>
    101e:	00c78563          	beq	a5,a2,1028 <SystemCoreClockUpdate+0x1c>
    1022:	4621                	li	a2,8
    1024:	02c78863          	beq	a5,a2,1054 <SystemCoreClockUpdate+0x48>
    1028:	007a17b7          	lui	a5,0x7a1
    102c:	20078793          	addi	a5,a5,512 # 7a1200 <_data_lma+0x79c518>
    1030:	c31c                	sw	a5,0(a4)
    1032:	400217b7          	lui	a5,0x40021
    1036:	43dc                	lw	a5,4(a5)
    1038:	8391                	srli	a5,a5,0x4
    103a:	00f7f693          	andi	a3,a5,15
    103e:	200007b7          	lui	a5,0x20000
    1042:	00078793          	mv	a5,a5
    1046:	97b6                	add	a5,a5,a3
    1048:	2394                	lbu	a3,0(a5)
    104a:	431c                	lw	a5,0(a4)
    104c:	00d7d7b3          	srl	a5,a5,a3
    1050:	c31c                	sw	a5,0(a4)
    1052:	8082                	ret
    1054:	42dc                	lw	a5,4(a3)
    1056:	42d4                	lw	a3,4(a3)
    1058:	6641                	lui	a2,0x10
    105a:	83c9                	srli	a5,a5,0x12
    105c:	8bbd                	andi	a5,a5,15
    105e:	8ef1                	and	a3,a3,a2
    1060:	0789                	addi	a5,a5,2
    1062:	4645                	li	a2,17
    1064:	00c79363          	bne	a5,a2,106a <SystemCoreClockUpdate+0x5e>
    1068:	47c9                	li	a5,18
    106a:	ee81                	bnez	a3,1082 <SystemCoreClockUpdate+0x76>
    106c:	400246b7          	lui	a3,0x40024
    1070:	8006a683          	lw	a3,-2048(a3) # 40023800 <_eusrstack+0x20021000>
    1074:	8ac1                	andi	a3,a3,16
    1076:	ce89                	beqz	a3,1090 <SystemCoreClockUpdate+0x84>
    1078:	007a16b7          	lui	a3,0x7a1
    107c:	20068693          	addi	a3,a3,512 # 7a1200 <_data_lma+0x79c518>
    1080:	a821                	j	1098 <SystemCoreClockUpdate+0x8c>
    1082:	400216b7          	lui	a3,0x40021
    1086:	42d4                	lw	a3,4(a3)
    1088:	00e69613          	slli	a2,a3,0xe
    108c:	fe0656e3          	bgez	a2,1078 <SystemCoreClockUpdate+0x6c>
    1090:	003d16b7          	lui	a3,0x3d1
    1094:	90068693          	addi	a3,a3,-1792 # 3d0900 <_data_lma+0x3cbc18>
    1098:	02d787b3          	mul	a5,a5,a3
    109c:	bf51                	j	1030 <SystemCoreClockUpdate+0x24>
    109e:	a001                	j	109e <SystemCoreClockUpdate+0x92>
    10a0:	a001                	j	10a0 <SystemCoreClockUpdate+0x94>

000010a2 <Ecall_M_Mode_Handler>:
    10a2:	a001                	j	10a2 <Ecall_M_Mode_Handler>

000010a4 <Ecall_U_Mode_Handler>:
    10a4:	a001                	j	10a4 <Ecall_U_Mode_Handler>

000010a6 <Break_Point_Handler>:
    10a6:	a001                	j	10a6 <Break_Point_Handler>

000010a8 <SysTick_Handler>:
    10a8:	a001                	j	10a8 <SysTick_Handler>

000010aa <SW_Handler>:
    10aa:	a001                	j	10aa <SW_Handler>

000010ac <WWDG_IRQHandler>:
    10ac:	a001                	j	10ac <WWDG_IRQHandler>

000010ae <PVD_IRQHandler>:
    10ae:	a001                	j	10ae <PVD_IRQHandler>

000010b0 <TAMPER_IRQHandler>:
    10b0:	a001                	j	10b0 <TAMPER_IRQHandler>

000010b2 <RTC_IRQHandler>:
    10b2:	a001                	j	10b2 <RTC_IRQHandler>

000010b4 <FLASH_IRQHandler>:
    10b4:	a001                	j	10b4 <FLASH_IRQHandler>

000010b6 <RCC_IRQHandler>:
    10b6:	a001                	j	10b6 <RCC_IRQHandler>

000010b8 <EXTI0_IRQHandler>:
    10b8:	a001                	j	10b8 <EXTI0_IRQHandler>

000010ba <EXTI1_IRQHandler>:
    10ba:	a001                	j	10ba <EXTI1_IRQHandler>

000010bc <EXTI2_IRQHandler>:
    10bc:	a001                	j	10bc <EXTI2_IRQHandler>

000010be <EXTI3_IRQHandler>:
    10be:	a001                	j	10be <EXTI3_IRQHandler>

000010c0 <EXTI4_IRQHandler>:
    10c0:	a001                	j	10c0 <EXTI4_IRQHandler>

000010c2 <DMA1_Channel1_IRQHandler>:
    10c2:	a001                	j	10c2 <DMA1_Channel1_IRQHandler>

000010c4 <DMA1_Channel2_IRQHandler>:
    10c4:	a001                	j	10c4 <DMA1_Channel2_IRQHandler>

000010c6 <DMA1_Channel3_IRQHandler>:
    10c6:	a001                	j	10c6 <DMA1_Channel3_IRQHandler>

000010c8 <DMA1_Channel4_IRQHandler>:
    10c8:	a001                	j	10c8 <DMA1_Channel4_IRQHandler>

000010ca <DMA1_Channel5_IRQHandler>:
    10ca:	a001                	j	10ca <DMA1_Channel5_IRQHandler>

000010cc <DMA1_Channel6_IRQHandler>:
    10cc:	a001                	j	10cc <DMA1_Channel6_IRQHandler>

000010ce <DMA1_Channel7_IRQHandler>:
    10ce:	a001                	j	10ce <DMA1_Channel7_IRQHandler>

000010d0 <ADC1_2_IRQHandler>:
    10d0:	a001                	j	10d0 <ADC1_2_IRQHandler>

000010d2 <USB_HP_CAN1_TX_IRQHandler>:
    10d2:	a001                	j	10d2 <USB_HP_CAN1_TX_IRQHandler>

000010d4 <USB_LP_CAN1_RX0_IRQHandler>:
    10d4:	a001                	j	10d4 <USB_LP_CAN1_RX0_IRQHandler>

000010d6 <CAN1_RX1_IRQHandler>:
    10d6:	a001                	j	10d6 <CAN1_RX1_IRQHandler>

000010d8 <CAN1_SCE_IRQHandler>:
    10d8:	a001                	j	10d8 <CAN1_SCE_IRQHandler>

000010da <EXTI9_5_IRQHandler>:
    10da:	a001                	j	10da <EXTI9_5_IRQHandler>

000010dc <TIM1_BRK_IRQHandler>:
    10dc:	a001                	j	10dc <TIM1_BRK_IRQHandler>

000010de <TIM1_UP_IRQHandler>:
    10de:	a001                	j	10de <TIM1_UP_IRQHandler>

000010e0 <TIM1_TRG_COM_IRQHandler>:
    10e0:	a001                	j	10e0 <TIM1_TRG_COM_IRQHandler>

000010e2 <TIM1_CC_IRQHandler>:
    10e2:	a001                	j	10e2 <TIM1_CC_IRQHandler>

000010e4 <TIM2_IRQHandler>:
    10e4:	a001                	j	10e4 <TIM2_IRQHandler>

000010e6 <TIM3_IRQHandler>:
    10e6:	a001                	j	10e6 <TIM3_IRQHandler>

000010e8 <TIM4_IRQHandler>:
    10e8:	a001                	j	10e8 <TIM4_IRQHandler>

000010ea <I2C1_EV_IRQHandler>:
    10ea:	a001                	j	10ea <I2C1_EV_IRQHandler>

000010ec <I2C1_ER_IRQHandler>:
    10ec:	a001                	j	10ec <I2C1_ER_IRQHandler>

000010ee <I2C2_EV_IRQHandler>:
    10ee:	a001                	j	10ee <I2C2_EV_IRQHandler>

000010f0 <I2C2_ER_IRQHandler>:
    10f0:	a001                	j	10f0 <I2C2_ER_IRQHandler>

000010f2 <SPI1_IRQHandler>:
    10f2:	a001                	j	10f2 <SPI1_IRQHandler>

000010f4 <SPI2_IRQHandler>:
    10f4:	a001                	j	10f4 <SPI2_IRQHandler>

000010f6 <USART1_IRQHandler>:
    10f6:	a001                	j	10f6 <USART1_IRQHandler>

000010f8 <USART2_IRQHandler>:
    10f8:	a001                	j	10f8 <USART2_IRQHandler>

000010fa <USART3_IRQHandler>:
    10fa:	a001                	j	10fa <USART3_IRQHandler>

000010fc <EXTI15_10_IRQHandler>:
    10fc:	a001                	j	10fc <EXTI15_10_IRQHandler>

000010fe <RTCAlarm_IRQHandler>:
    10fe:	a001                	j	10fe <RTCAlarm_IRQHandler>

00001100 <USBWakeUp_IRQHandler>:
    1100:	a001                	j	1100 <USBWakeUp_IRQHandler>

00001102 <USBHD_IRQHandler>:
    1102:	a001                	j	1102 <USBHD_IRQHandler>

00001104 <USBHDWakeUp_IRQHandler>:
    1104:	a001                	j	1104 <USBHDWakeUp_IRQHandler>

00001106 <UART4_IRQHandler>:
    1106:	a001                	j	1106 <UART4_IRQHandler>

00001108 <DMA1_Channel8_IRQHandler>:
    1108:	a001                	j	1108 <DMA1_Channel8_IRQHandler>

0000110a <handle_reset>:
    110a:	1ffff197          	auipc	gp,0x1ffff
    110e:	77618193          	addi	gp,gp,1910 # 20000880 <__global_pointer$>
    1112:	20001117          	auipc	sp,0x20001
    1116:	6ee10113          	addi	sp,sp,1774 # 20002800 <_eusrstack>
    111a:	00004517          	auipc	a0,0x4
    111e:	bce50513          	addi	a0,a0,-1074 # 4ce8 <_data_lma>
    1122:	1ffff597          	auipc	a1,0x1ffff
    1126:	ede58593          	addi	a1,a1,-290 # 20000000 <_data_vma>
    112a:	81018613          	addi	a2,gp,-2032 # 20000090 <_edata>
    112e:	00c5fa63          	bgeu	a1,a2,1142 <handle_reset+0x38>
    1132:	00052283          	lw	t0,0(a0)
    1136:	0055a023          	sw	t0,0(a1)
    113a:	0511                	addi	a0,a0,4
    113c:	0591                	addi	a1,a1,4
    113e:	fec5eae3          	bltu	a1,a2,1132 <handle_reset+0x28>
    1142:	81018513          	addi	a0,gp,-2032 # 20000090 <_edata>
    1146:	94c18593          	addi	a1,gp,-1716 # 200001cc <_ebss>
    114a:	00b57763          	bgeu	a0,a1,1158 <handle_reset+0x4e>
    114e:	00052023          	sw	zero,0(a0)
    1152:	0511                	addi	a0,a0,4
    1154:	feb56de3          	bltu	a0,a1,114e <handle_reset+0x44>
    1158:	42fd                	li	t0,31
    115a:	bc029073          	csrw	0xbc0,t0
    115e:	428d                	li	t0,3
    1160:	80429073          	csrw	0x804,t0
    1164:	08800293          	li	t0,136
    1168:	3002a073          	csrs	mstatus,t0
    116c:	fffff297          	auipc	t0,0xfffff
    1170:	ecc28293          	addi	t0,t0,-308 # 38 <_einit>
    1174:	0032e293          	ori	t0,t0,3
    1178:	30529073          	csrw	mtvec,t0
    117c:	da7ff0ef          	jal	ra,f22 <SystemInit>
    1180:	fffff297          	auipc	t0,0xfffff
    1184:	49828293          	addi	t0,t0,1176 # 618 <main>
    1188:	34129073          	csrw	mepc,t0
    118c:	30200073          	mret

00001190 <GPIO_Init>:
    1190:	459c                	lw	a5,8(a1)
    1192:	0107f713          	andi	a4,a5,16
    1196:	00f7f813          	andi	a6,a5,15
    119a:	c701                	beqz	a4,11a2 <GPIO_Init+0x12>
    119c:	41d8                	lw	a4,4(a1)
    119e:	00e86833          	or	a6,a6,a4
    11a2:	40022737          	lui	a4,0x40022
    11a6:	5b14                	lw	a3,48(a4)
    11a8:	0f000737          	lui	a4,0xf000
    11ac:	8f75                	and	a4,a4,a3
    11ae:	eb4d                	bnez	a4,1260 <GPIO_Init+0xd0>
    11b0:	4685                	li	a3,1
    11b2:	80d189a3          	sb	a3,-2029(gp) # 20000093 <MCU_Version>
    11b6:	40011737          	lui	a4,0x40011
    11ba:	00e51563          	bne	a0,a4,11c4 <GPIO_Init+0x34>
    11be:	219a                	lhu	a4,0(a1)
    11c0:	8335                	srli	a4,a4,0xd
    11c2:	a19a                	sh	a4,0(a1)
    11c4:	218e                	lhu	a1,0(a1)
    11c6:	0ff5f713          	andi	a4,a1,255
    11ca:	c339                	beqz	a4,1210 <GPIO_Init+0x80>
    11cc:	4118                	lw	a4,0(a0)
    11ce:	4681                	li	a3,0
    11d0:	4e85                	li	t4,1
    11d2:	4f3d                	li	t5,15
    11d4:	02800f93          	li	t6,40
    11d8:	04800293          	li	t0,72
    11dc:	4e21                	li	t3,8
    11de:	00de9633          	sll	a2,t4,a3
    11e2:	00c5f8b3          	and	a7,a1,a2
    11e6:	03161163          	bne	a2,a7,1208 <GPIO_Init+0x78>
    11ea:	00269893          	slli	a7,a3,0x2
    11ee:	011f1333          	sll	t1,t5,a7
    11f2:	fff34313          	not	t1,t1
    11f6:	00e37733          	and	a4,t1,a4
    11fa:	011818b3          	sll	a7,a6,a7
    11fe:	00e8e733          	or	a4,a7,a4
    1202:	07f79763          	bne	a5,t6,1270 <GPIO_Init+0xe0>
    1206:	c950                	sw	a2,20(a0)
    1208:	0685                	addi	a3,a3,1
    120a:	fdc69ae3          	bne	a3,t3,11de <GPIO_Init+0x4e>
    120e:	c118                	sw	a4,0(a0)
    1210:	0ff00713          	li	a4,255
    1214:	04b77563          	bgeu	a4,a1,125e <GPIO_Init+0xce>
    1218:	4154                	lw	a3,4(a0)
    121a:	4621                	li	a2,8
    121c:	4e85                	li	t4,1
    121e:	4f3d                	li	t5,15
    1220:	02800f93          	li	t6,40
    1224:	04800293          	li	t0,72
    1228:	4e41                	li	t3,16
    122a:	00ce98b3          	sll	a7,t4,a2
    122e:	0115f733          	and	a4,a1,a7
    1232:	02e89263          	bne	a7,a4,1256 <GPIO_Init+0xc6>
    1236:	00261713          	slli	a4,a2,0x2
    123a:	1701                	addi	a4,a4,-32
    123c:	00ef1333          	sll	t1,t5,a4
    1240:	fff34313          	not	t1,t1
    1244:	00d376b3          	and	a3,t1,a3
    1248:	00e81733          	sll	a4,a6,a4
    124c:	8ed9                	or	a3,a3,a4
    124e:	03f79563          	bne	a5,t6,1278 <GPIO_Init+0xe8>
    1252:	01152a23          	sw	a7,20(a0)
    1256:	0605                	addi	a2,a2,1
    1258:	fdc619e3          	bne	a2,t3,122a <GPIO_Init+0x9a>
    125c:	c154                	sw	a3,4(a0)
    125e:	8082                	ret
    1260:	40011737          	lui	a4,0x40011
    1264:	f6e510e3          	bne	a0,a4,11c4 <GPIO_Init+0x34>
    1268:	8131c703          	lbu	a4,-2029(gp) # 20000093 <MCU_Version>
    126c:	df21                	beqz	a4,11c4 <GPIO_Init+0x34>
    126e:	bf81                	j	11be <GPIO_Init+0x2e>
    1270:	f8579ce3          	bne	a5,t0,1208 <GPIO_Init+0x78>
    1274:	c910                	sw	a2,16(a0)
    1276:	bf49                	j	1208 <GPIO_Init+0x78>
    1278:	fc579fe3          	bne	a5,t0,1256 <GPIO_Init+0xc6>
    127c:	01152823          	sw	a7,16(a0)
    1280:	bfd9                	j	1256 <GPIO_Init+0xc6>

00001282 <GPIO_ResetBits>:
    1282:	400117b7          	lui	a5,0x40011
    1286:	00f51663          	bne	a0,a5,1292 <GPIO_ResetBits+0x10>
    128a:	8131c783          	lbu	a5,-2029(gp) # 20000093 <MCU_Version>
    128e:	c391                	beqz	a5,1292 <GPIO_ResetBits+0x10>
    1290:	81b5                	srli	a1,a1,0xd
    1292:	c94c                	sw	a1,20(a0)
    1294:	8082                	ret

00001296 <GPIO_WriteBit>:
    1296:	400117b7          	lui	a5,0x40011
    129a:	00f51663          	bne	a0,a5,12a6 <GPIO_WriteBit+0x10>
    129e:	8131c783          	lbu	a5,-2029(gp) # 20000093 <MCU_Version>
    12a2:	c391                	beqz	a5,12a6 <GPIO_WriteBit+0x10>
    12a4:	81b5                	srli	a1,a1,0xd
    12a6:	c219                	beqz	a2,12ac <GPIO_WriteBit+0x16>
    12a8:	c90c                	sw	a1,16(a0)
    12aa:	8082                	ret
    12ac:	c94c                	sw	a1,20(a0)
    12ae:	8082                	ret

000012b0 <I2C_Init>:
    12b0:	ec1fe2ef          	jal	t0,170 <__riscv_save_0>
    12b4:	7179                	addi	sp,sp,-48
    12b6:	842a                	mv	s0,a0
    12b8:	2146                	lhu	s1,4(a0)
    12ba:	0868                	addi	a0,sp,28
    12bc:	c62e                	sw	a1,12(sp)
    12be:	227d                	jal	146c <RCC_GetClocksFreq>
    12c0:	5792                	lw	a5,36(sp)
    12c2:	000f4737          	lui	a4,0xf4
    12c6:	24070713          	addi	a4,a4,576 # f4240 <_data_lma+0xef558>
    12ca:	02e7d733          	divu	a4,a5,a4
    12ce:	04c2                	slli	s1,s1,0x10
    12d0:	80c1                	srli	s1,s1,0x10
    12d2:	fc04f493          	andi	s1,s1,-64
    12d6:	04c2                	slli	s1,s1,0x10
    12d8:	80c1                	srli	s1,s1,0x10
    12da:	45b2                	lw	a1,12(sp)
    12dc:	6561                	lui	a0,0x18
    12de:	6a050513          	addi	a0,a0,1696 # 186a0 <_data_lma+0x139b8>
    12e2:	01071613          	slli	a2,a4,0x10
    12e6:	8241                	srli	a2,a2,0x10
    12e8:	8cd1                	or	s1,s1,a2
    12ea:	a046                	sh	s1,4(s0)
    12ec:	2016                	lhu	a3,0(s0)
    12ee:	06c2                	slli	a3,a3,0x10
    12f0:	82c1                	srli	a3,a3,0x10
    12f2:	9af9                	andi	a3,a3,-2
    12f4:	06c2                	slli	a3,a3,0x10
    12f6:	82c1                	srli	a3,a3,0x10
    12f8:	a016                	sh	a3,0(s0)
    12fa:	4194                	lw	a3,0(a1)
    12fc:	04d56963          	bltu	a0,a3,134e <I2C_Init+0x9e>
    1300:	0686                	slli	a3,a3,0x1
    1302:	02d7d7b3          	divu	a5,a5,a3
    1306:	4691                	li	a3,4
    1308:	01079713          	slli	a4,a5,0x10
    130c:	8341                	srli	a4,a4,0x10
    130e:	87ba                	mv	a5,a4
    1310:	00d77363          	bgeu	a4,a3,1316 <I2C_Init+0x66>
    1314:	4791                	li	a5,4
    1316:	0605                	addi	a2,a2,1
    1318:	0642                	slli	a2,a2,0x10
    131a:	07c2                	slli	a5,a5,0x10
    131c:	8241                	srli	a2,a2,0x10
    131e:	83c1                	srli	a5,a5,0x10
    1320:	b012                	sh	a2,32(s0)
    1322:	ac5e                	sh	a5,28(s0)
    1324:	201e                	lhu	a5,0(s0)
    1326:	21da                	lhu	a4,4(a1)
    1328:	25b6                	lhu	a3,10(a1)
    132a:	0017e793          	ori	a5,a5,1
    132e:	a01e                	sh	a5,0(s0)
    1330:	201e                	lhu	a5,0(s0)
    1332:	8f55                	or	a4,a4,a3
    1334:	07c2                	slli	a5,a5,0x10
    1336:	83c1                	srli	a5,a5,0x10
    1338:	bf57f793          	andi	a5,a5,-1035
    133c:	8fd9                	or	a5,a5,a4
    133e:	a01e                	sh	a5,0(s0)
    1340:	259a                	lhu	a4,8(a1)
    1342:	25de                	lhu	a5,12(a1)
    1344:	8fd9                	or	a5,a5,a4
    1346:	a41e                	sh	a5,8(s0)
    1348:	6145                	addi	sp,sp,48
    134a:	e4bfe06f          	j	194 <__riscv_restore_0>
    134e:	21ea                	lhu	a0,6(a1)
    1350:	6631                	lui	a2,0xc
    1352:	167d                	addi	a2,a2,-1
    1354:	02c51d63          	bne	a0,a2,138e <I2C_Init+0xde>
    1358:	460d                	li	a2,3
    135a:	02c686b3          	mul	a3,a3,a2
    135e:	02d7d7b3          	divu	a5,a5,a3
    1362:	07c2                	slli	a5,a5,0x10
    1364:	83c1                	srli	a5,a5,0x10
    1366:	01479693          	slli	a3,a5,0x14
    136a:	e299                	bnez	a3,1370 <I2C_Init+0xc0>
    136c:	0017e793          	ori	a5,a5,1
    1370:	66a1                	lui	a3,0x8
    1372:	8fd5                	or	a5,a5,a3
    1374:	12c00693          	li	a3,300
    1378:	02d70733          	mul	a4,a4,a3
    137c:	3e800693          	li	a3,1000
    1380:	02d74733          	div	a4,a4,a3
    1384:	0705                	addi	a4,a4,1
    1386:	0742                	slli	a4,a4,0x10
    1388:	8341                	srli	a4,a4,0x10
    138a:	b01a                	sh	a4,32(s0)
    138c:	bf59                	j	1322 <I2C_Init+0x72>
    138e:	4665                	li	a2,25
    1390:	02c686b3          	mul	a3,a3,a2
    1394:	02d7d7b3          	divu	a5,a5,a3
    1398:	6691                	lui	a3,0x4
    139a:	07c2                	slli	a5,a5,0x10
    139c:	83c1                	srli	a5,a5,0x10
    139e:	8fd5                	or	a5,a5,a3
    13a0:	b7d9                	j	1366 <I2C_Init+0xb6>

000013a2 <I2C_Cmd>:
    13a2:	211e                	lhu	a5,0(a0)
    13a4:	c589                	beqz	a1,13ae <I2C_Cmd+0xc>
    13a6:	0017e793          	ori	a5,a5,1
    13aa:	a11e                	sh	a5,0(a0)
    13ac:	8082                	ret
    13ae:	07c2                	slli	a5,a5,0x10
    13b0:	83c1                	srli	a5,a5,0x10
    13b2:	9bf9                	andi	a5,a5,-2
    13b4:	07c2                	slli	a5,a5,0x10
    13b6:	83c1                	srli	a5,a5,0x10
    13b8:	bfcd                	j	13aa <I2C_Cmd+0x8>

000013ba <I2C_GenerateSTART>:
    13ba:	211e                	lhu	a5,0(a0)
    13bc:	c589                	beqz	a1,13c6 <I2C_GenerateSTART+0xc>
    13be:	1007e793          	ori	a5,a5,256
    13c2:	a11e                	sh	a5,0(a0)
    13c4:	8082                	ret
    13c6:	07c2                	slli	a5,a5,0x10
    13c8:	83c1                	srli	a5,a5,0x10
    13ca:	eff7f793          	andi	a5,a5,-257
    13ce:	07c2                	slli	a5,a5,0x10
    13d0:	83c1                	srli	a5,a5,0x10
    13d2:	bfc5                	j	13c2 <I2C_GenerateSTART+0x8>

000013d4 <I2C_GenerateSTOP>:
    13d4:	211e                	lhu	a5,0(a0)
    13d6:	c589                	beqz	a1,13e0 <I2C_GenerateSTOP+0xc>
    13d8:	2007e793          	ori	a5,a5,512
    13dc:	a11e                	sh	a5,0(a0)
    13de:	8082                	ret
    13e0:	07c2                	slli	a5,a5,0x10
    13e2:	83c1                	srli	a5,a5,0x10
    13e4:	dff7f793          	andi	a5,a5,-513
    13e8:	07c2                	slli	a5,a5,0x10
    13ea:	83c1                	srli	a5,a5,0x10
    13ec:	bfc5                	j	13dc <I2C_GenerateSTOP+0x8>

000013ee <I2C_AcknowledgeConfig>:
    13ee:	211e                	lhu	a5,0(a0)
    13f0:	c589                	beqz	a1,13fa <I2C_AcknowledgeConfig+0xc>
    13f2:	4007e793          	ori	a5,a5,1024
    13f6:	a11e                	sh	a5,0(a0)
    13f8:	8082                	ret
    13fa:	07c2                	slli	a5,a5,0x10
    13fc:	83c1                	srli	a5,a5,0x10
    13fe:	bff7f793          	andi	a5,a5,-1025
    1402:	07c2                	slli	a5,a5,0x10
    1404:	83c1                	srli	a5,a5,0x10
    1406:	bfc5                	j	13f6 <I2C_AcknowledgeConfig+0x8>

00001408 <I2C_SendData>:
    1408:	a90e                	sh	a1,16(a0)
    140a:	8082                	ret

0000140c <I2C_Send7bitAddress>:
    140c:	0fe5f793          	andi	a5,a1,254
    1410:	c219                	beqz	a2,1416 <I2C_Send7bitAddress+0xa>
    1412:	0015e793          	ori	a5,a1,1
    1416:	07c2                	slli	a5,a5,0x10
    1418:	83c1                	srli	a5,a5,0x10
    141a:	a91e                	sh	a5,16(a0)
    141c:	8082                	ret

0000141e <I2C_CheckEvent>:
    141e:	295e                	lhu	a5,20(a0)
    1420:	2d0a                	lhu	a0,24(a0)
    1422:	0542                	slli	a0,a0,0x10
    1424:	8d5d                	or	a0,a0,a5
    1426:	8d6d                	and	a0,a0,a1
    1428:	0522                	slli	a0,a0,0x8
    142a:	8121                	srli	a0,a0,0x8
    142c:	8d0d                	sub	a0,a0,a1
    142e:	00153513          	seqz	a0,a0
    1432:	8082                	ret

00001434 <I2C_GetFlagStatus>:
    1434:	1141                	addi	sp,sp,-16
    1436:	c402                	sw	zero,8(sp)
    1438:	c602                	sw	zero,12(sp)
    143a:	01c5d793          	srli	a5,a1,0x1c
    143e:	c62a                	sw	a0,12(sp)
    1440:	c43e                	sw	a5,8(sp)
    1442:	47a2                	lw	a5,8(sp)
    1444:	05a2                	slli	a1,a1,0x8
    1446:	81a1                	srli	a1,a1,0x8
    1448:	cb99                	beqz	a5,145e <I2C_GetFlagStatus+0x2a>
    144a:	47b2                	lw	a5,12(sp)
    144c:	07d1                	addi	a5,a5,20
    144e:	c63e                	sw	a5,12(sp)
    1450:	47b2                	lw	a5,12(sp)
    1452:	4388                	lw	a0,0(a5)
    1454:	0141                	addi	sp,sp,16
    1456:	8d6d                	and	a0,a0,a1
    1458:	00a03533          	snez	a0,a0
    145c:	8082                	ret
    145e:	47b2                	lw	a5,12(sp)
    1460:	81c1                	srli	a1,a1,0x10
    1462:	07e1                	addi	a5,a5,24
    1464:	b7ed                	j	144e <I2C_GetFlagStatus+0x1a>

00001466 <NVIC_PriorityGroupConfig>:
    1466:	80a1aa23          	sw	a0,-2028(gp) # 20000094 <NVIC_Priority_Group>
    146a:	8082                	ret

0000146c <RCC_GetClocksFreq>:
    146c:	40021737          	lui	a4,0x40021
    1470:	435c                	lw	a5,4(a4)
    1472:	4691                	li	a3,4
    1474:	8bb1                	andi	a5,a5,12
    1476:	00d78563          	beq	a5,a3,1480 <RCC_GetClocksFreq+0x14>
    147a:	46a1                	li	a3,8
    147c:	06d78263          	beq	a5,a3,14e0 <RCC_GetClocksFreq+0x74>
    1480:	007a17b7          	lui	a5,0x7a1
    1484:	20078793          	addi	a5,a5,512 # 7a1200 <_data_lma+0x79c518>
    1488:	c11c                	sw	a5,0(a0)
    148a:	40021637          	lui	a2,0x40021
    148e:	425c                	lw	a5,4(a2)
    1490:	20000737          	lui	a4,0x20000
    1494:	01070713          	addi	a4,a4,16 # 20000010 <APBAHBPrescTable>
    1498:	8391                	srli	a5,a5,0x4
    149a:	8bbd                	andi	a5,a5,15
    149c:	97ba                	add	a5,a5,a4
    149e:	2394                	lbu	a3,0(a5)
    14a0:	411c                	lw	a5,0(a0)
    14a2:	00d7d7b3          	srl	a5,a5,a3
    14a6:	c15c                	sw	a5,4(a0)
    14a8:	4254                	lw	a3,4(a2)
    14aa:	82a1                	srli	a3,a3,0x8
    14ac:	8a9d                	andi	a3,a3,7
    14ae:	96ba                	add	a3,a3,a4
    14b0:	2294                	lbu	a3,0(a3)
    14b2:	00d7d6b3          	srl	a3,a5,a3
    14b6:	c514                	sw	a3,8(a0)
    14b8:	4254                	lw	a3,4(a2)
    14ba:	82ad                	srli	a3,a3,0xb
    14bc:	8a9d                	andi	a3,a3,7
    14be:	9736                	add	a4,a4,a3
    14c0:	2318                	lbu	a4,0(a4)
    14c2:	00e7d7b3          	srl	a5,a5,a4
    14c6:	c55c                	sw	a5,12(a0)
    14c8:	4258                	lw	a4,4(a2)
    14ca:	8339                	srli	a4,a4,0xe
    14cc:	00377693          	andi	a3,a4,3
    14d0:	80418713          	addi	a4,gp,-2044 # 20000084 <ADCPrescTable>
    14d4:	9736                	add	a4,a4,a3
    14d6:	2318                	lbu	a4,0(a4)
    14d8:	02e7d7b3          	divu	a5,a5,a4
    14dc:	c91c                	sw	a5,16(a0)
    14de:	8082                	ret
    14e0:	435c                	lw	a5,4(a4)
    14e2:	4358                	lw	a4,4(a4)
    14e4:	66c1                	lui	a3,0x10
    14e6:	83c9                	srli	a5,a5,0x12
    14e8:	8bbd                	andi	a5,a5,15
    14ea:	8f75                	and	a4,a4,a3
    14ec:	0789                	addi	a5,a5,2
    14ee:	46c5                	li	a3,17
    14f0:	00d79363          	bne	a5,a3,14f6 <RCC_GetClocksFreq+0x8a>
    14f4:	47c9                	li	a5,18
    14f6:	ef01                	bnez	a4,150e <RCC_GetClocksFreq+0xa2>
    14f8:	40024737          	lui	a4,0x40024
    14fc:	80072703          	lw	a4,-2048(a4) # 40023800 <_eusrstack+0x20021000>
    1500:	8b41                	andi	a4,a4,16
    1502:	cf09                	beqz	a4,151c <RCC_GetClocksFreq+0xb0>
    1504:	007a1737          	lui	a4,0x7a1
    1508:	20070713          	addi	a4,a4,512 # 7a1200 <_data_lma+0x79c518>
    150c:	a821                	j	1524 <RCC_GetClocksFreq+0xb8>
    150e:	40021737          	lui	a4,0x40021
    1512:	4358                	lw	a4,4(a4)
    1514:	00e71693          	slli	a3,a4,0xe
    1518:	fe06d6e3          	bgez	a3,1504 <RCC_GetClocksFreq+0x98>
    151c:	003d1737          	lui	a4,0x3d1
    1520:	90070713          	addi	a4,a4,-1792 # 3d0900 <_data_lma+0x3cbc18>
    1524:	02e787b3          	mul	a5,a5,a4
    1528:	b785                	j	1488 <RCC_GetClocksFreq+0x1c>

0000152a <RCC_APB2PeriphClockCmd>:
    152a:	c599                	beqz	a1,1538 <RCC_APB2PeriphClockCmd+0xe>
    152c:	40021737          	lui	a4,0x40021
    1530:	4f1c                	lw	a5,24(a4)
    1532:	8d5d                	or	a0,a0,a5
    1534:	cf08                	sw	a0,24(a4)
    1536:	8082                	ret
    1538:	400217b7          	lui	a5,0x40021
    153c:	4f98                	lw	a4,24(a5)
    153e:	fff54513          	not	a0,a0
    1542:	8d79                	and	a0,a0,a4
    1544:	cf88                	sw	a0,24(a5)
    1546:	8082                	ret

00001548 <RCC_APB1PeriphClockCmd>:
    1548:	c599                	beqz	a1,1556 <RCC_APB1PeriphClockCmd+0xe>
    154a:	40021737          	lui	a4,0x40021
    154e:	4f5c                	lw	a5,28(a4)
    1550:	8d5d                	or	a0,a0,a5
    1552:	cf48                	sw	a0,28(a4)
    1554:	8082                	ret
    1556:	400217b7          	lui	a5,0x40021
    155a:	4fd8                	lw	a4,28(a5)
    155c:	fff54513          	not	a0,a0
    1560:	8d79                	and	a0,a0,a4
    1562:	cfc8                	sw	a0,28(a5)
    1564:	8082                	ret

00001566 <TIM_Cmd>:
    1566:	211e                	lhu	a5,0(a0)
    1568:	c589                	beqz	a1,1572 <TIM_Cmd+0xc>
    156a:	0017e793          	ori	a5,a5,1
    156e:	a11e                	sh	a5,0(a0)
    1570:	8082                	ret
    1572:	07c2                	slli	a5,a5,0x10
    1574:	83c1                	srli	a5,a5,0x10
    1576:	9bf9                	andi	a5,a5,-2
    1578:	07c2                	slli	a5,a5,0x10
    157a:	83c1                	srli	a5,a5,0x10
    157c:	bfcd                	j	156e <TIM_Cmd+0x8>

0000157e <TIM_PrescalerConfig>:
    157e:	b50e                	sh	a1,40(a0)
    1580:	a952                	sh	a2,20(a0)
    1582:	8082                	ret

00001584 <TIM_CounterModeConfig>:
    1584:	211e                	lhu	a5,0(a0)
    1586:	07c2                	slli	a5,a5,0x10
    1588:	83c1                	srli	a5,a5,0x10
    158a:	f8f7f793          	andi	a5,a5,-113
    158e:	8ddd                	or	a1,a1,a5
    1590:	a10e                	sh	a1,0(a0)
    1592:	8082                	ret

00001594 <TIM_SelectInputTrigger>:
    1594:	251e                	lhu	a5,8(a0)
    1596:	07c2                	slli	a5,a5,0x10
    1598:	83c1                	srli	a5,a5,0x10
    159a:	f8f7f793          	andi	a5,a5,-113
    159e:	8ddd                	or	a1,a1,a5
    15a0:	a50e                	sh	a1,8(a0)
    15a2:	8082                	ret

000015a4 <TIM_SelectOutputTrigger>:
    15a4:	215e                	lhu	a5,4(a0)
    15a6:	07c2                	slli	a5,a5,0x10
    15a8:	83c1                	srli	a5,a5,0x10
    15aa:	f8f7f793          	andi	a5,a5,-113
    15ae:	07c2                	slli	a5,a5,0x10
    15b0:	83c1                	srli	a5,a5,0x10
    15b2:	a15e                	sh	a5,4(a0)
    15b4:	215e                	lhu	a5,4(a0)
    15b6:	8ddd                	or	a1,a1,a5
    15b8:	a14e                	sh	a1,4(a0)
    15ba:	8082                	ret

000015bc <TIM_SelectSlaveMode>:
    15bc:	251e                	lhu	a5,8(a0)
    15be:	07c2                	slli	a5,a5,0x10
    15c0:	83c1                	srli	a5,a5,0x10
    15c2:	9be1                	andi	a5,a5,-8
    15c4:	07c2                	slli	a5,a5,0x10
    15c6:	83c1                	srli	a5,a5,0x10
    15c8:	a51e                	sh	a5,8(a0)
    15ca:	251e                	lhu	a5,8(a0)
    15cc:	8ddd                	or	a1,a1,a5
    15ce:	a50e                	sh	a1,8(a0)
    15d0:	8082                	ret

000015d2 <TIM_SetAutoreload>:
    15d2:	b54e                	sh	a1,44(a0)
    15d4:	8082                	ret

000015d6 <Delay_Init>:
    15d6:	200007b7          	lui	a5,0x20000
    15da:	0807a783          	lw	a5,128(a5) # 20000080 <SystemCoreClock>
    15de:	007a1737          	lui	a4,0x7a1
    15e2:	20070713          	addi	a4,a4,512 # 7a1200 <_data_lma+0x79c518>
    15e6:	02e7d7b3          	divu	a5,a5,a4
    15ea:	0ff7f793          	andi	a5,a5,255
    15ee:	80f18d23          	sb	a5,-2022(gp) # 2000009a <p_us>
    15f2:	3e800713          	li	a4,1000
    15f6:	02e787b3          	mul	a5,a5,a4
    15fa:	80f19c23          	sh	a5,-2024(gp) # 20000098 <p_ms>
    15fe:	8082                	ret

00001600 <Delay_Us>:
    1600:	e000f7b7          	lui	a5,0xe000f
    1604:	43d8                	lw	a4,4(a5)
    1606:	4681                	li	a3,0
    1608:	9b79                	andi	a4,a4,-2
    160a:	c3d8                	sw	a4,4(a5)
    160c:	81a1c703          	lbu	a4,-2022(gp) # 2000009a <p_us>
    1610:	02a70633          	mul	a2,a4,a0
    1614:	cb90                	sw	a2,16(a5)
    1616:	cbd4                	sw	a3,20(a5)
    1618:	4398                	lw	a4,0(a5)
    161a:	01076713          	ori	a4,a4,16
    161e:	c398                	sw	a4,0(a5)
    1620:	4398                	lw	a4,0(a5)
    1622:	02176713          	ori	a4,a4,33
    1626:	c398                	sw	a4,0(a5)
    1628:	43d8                	lw	a4,4(a5)
    162a:	8b05                	andi	a4,a4,1
    162c:	df75                	beqz	a4,1628 <Delay_Us+0x28>
    162e:	4398                	lw	a4,0(a5)
    1630:	9b79                	andi	a4,a4,-2
    1632:	c398                	sw	a4,0(a5)
    1634:	8082                	ret

00001636 <Delay_Ms>:
    1636:	e000f7b7          	lui	a5,0xe000f
    163a:	43d8                	lw	a4,4(a5)
    163c:	4681                	li	a3,0
    163e:	9b79                	andi	a4,a4,-2
    1640:	c3d8                	sw	a4,4(a5)
    1642:	8181d703          	lhu	a4,-2024(gp) # 20000098 <p_ms>
    1646:	02a70633          	mul	a2,a4,a0
    164a:	cb90                	sw	a2,16(a5)
    164c:	cbd4                	sw	a3,20(a5)
    164e:	4398                	lw	a4,0(a5)
    1650:	01076713          	ori	a4,a4,16
    1654:	c398                	sw	a4,0(a5)
    1656:	4398                	lw	a4,0(a5)
    1658:	02176713          	ori	a4,a4,33
    165c:	c398                	sw	a4,0(a5)
    165e:	43d8                	lw	a4,4(a5)
    1660:	8b05                	andi	a4,a4,1
    1662:	df75                	beqz	a4,165e <Delay_Ms+0x28>
    1664:	4398                	lw	a4,0(a5)
    1666:	9b79                	andi	a4,a4,-2
    1668:	c398                	sw	a4,0(a5)
    166a:	8082                	ret

0000166c <__subdf3>:
    166c:	00100737          	lui	a4,0x100
    1670:	177d                	addi	a4,a4,-1
    1672:	1101                	addi	sp,sp,-32
    1674:	00b77333          	and	t1,a4,a1
    1678:	0146d893          	srli	a7,a3,0x14
    167c:	8f75                	and	a4,a4,a3
    167e:	01d65e93          	srli	t4,a2,0x1d
    1682:	cc22                	sw	s0,24(sp)
    1684:	ca26                	sw	s1,20(sp)
    1686:	030e                	slli	t1,t1,0x3
    1688:	0145d493          	srli	s1,a1,0x14
    168c:	01d55793          	srli	a5,a0,0x1d
    1690:	070e                	slli	a4,a4,0x3
    1692:	ce06                	sw	ra,28(sp)
    1694:	c84a                	sw	s2,16(sp)
    1696:	c64e                	sw	s3,12(sp)
    1698:	7ff8f893          	andi	a7,a7,2047
    169c:	7ff00e13          	li	t3,2047
    16a0:	00eee733          	or	a4,t4,a4
    16a4:	7ff4f493          	andi	s1,s1,2047
    16a8:	01f5d413          	srli	s0,a1,0x1f
    16ac:	0067e333          	or	t1,a5,t1
    16b0:	00351f13          	slli	t5,a0,0x3
    16b4:	82fd                	srli	a3,a3,0x1f
    16b6:	00361e93          	slli	t4,a2,0x3
    16ba:	19c88063          	beq	a7,t3,183a <__subdf3+0x1ce>
    16be:	0016c693          	xori	a3,a3,1
    16c2:	411485b3          	sub	a1,s1,a7
    16c6:	12d40563          	beq	s0,a3,17f0 <__subdf3+0x184>
    16ca:	18b05163          	blez	a1,184c <__subdf3+0x1e0>
    16ce:	1a088b63          	beqz	a7,1884 <__subdf3+0x218>
    16d2:	008007b7          	lui	a5,0x800
    16d6:	8f5d                	or	a4,a4,a5
    16d8:	59c48163          	beq	s1,t3,1c5a <__subdf3+0x5ee>
    16dc:	03800793          	li	a5,56
    16e0:	34b7c463          	blt	a5,a1,1a28 <__subdf3+0x3bc>
    16e4:	47fd                	li	a5,31
    16e6:	48b7c563          	blt	a5,a1,1b70 <__subdf3+0x504>
    16ea:	02000793          	li	a5,32
    16ee:	8f8d                	sub	a5,a5,a1
    16f0:	00bed9b3          	srl	s3,t4,a1
    16f4:	00f71833          	sll	a6,a4,a5
    16f8:	00fe9eb3          	sll	t4,t4,a5
    16fc:	01386833          	or	a6,a6,s3
    1700:	00b75733          	srl	a4,a4,a1
    1704:	01d039b3          	snez	s3,t4
    1708:	01386833          	or	a6,a6,s3
    170c:	40e30333          	sub	t1,t1,a4
    1710:	410f09b3          	sub	s3,t5,a6
    1714:	013f37b3          	sltu	a5,t5,s3
    1718:	40f30633          	sub	a2,t1,a5
    171c:	00861793          	slli	a5,a2,0x8
    1720:	2407d363          	bgez	a5,1966 <__subdf3+0x2fa>
    1724:	00800937          	lui	s2,0x800
    1728:	197d                	addi	s2,s2,-1
    172a:	01267933          	and	s2,a2,s2
    172e:	2c090f63          	beqz	s2,1a0c <__subdf3+0x3a0>
    1732:	854a                	mv	a0,s2
    1734:	7cc010ef          	jal	ra,2f00 <__clzsi2>
    1738:	ff850713          	addi	a4,a0,-8
    173c:	02000793          	li	a5,32
    1740:	8f99                	sub	a5,a5,a4
    1742:	00f9d7b3          	srl	a5,s3,a5
    1746:	00e91633          	sll	a2,s2,a4
    174a:	8fd1                	or	a5,a5,a2
    174c:	00e999b3          	sll	s3,s3,a4
    1750:	2a974463          	blt	a4,s1,19f8 <__subdf3+0x38c>
    1754:	8f05                	sub	a4,a4,s1
    1756:	00170613          	addi	a2,a4,1 # 100001 <_data_lma+0xfb319>
    175a:	46fd                	li	a3,31
    175c:	3ac6c563          	blt	a3,a2,1b06 <__subdf3+0x49a>
    1760:	02000713          	li	a4,32
    1764:	8f11                	sub	a4,a4,a2
    1766:	00c9d6b3          	srl	a3,s3,a2
    176a:	00e99833          	sll	a6,s3,a4
    176e:	00e79733          	sll	a4,a5,a4
    1772:	8f55                	or	a4,a4,a3
    1774:	01003833          	snez	a6,a6
    1778:	010769b3          	or	s3,a4,a6
    177c:	00c7d633          	srl	a2,a5,a2
    1780:	4481                	li	s1,0
    1782:	0079f793          	andi	a5,s3,7
    1786:	cf81                	beqz	a5,179e <__subdf3+0x132>
    1788:	00f9f693          	andi	a3,s3,15
    178c:	4791                	li	a5,4
    178e:	00f68863          	beq	a3,a5,179e <__subdf3+0x132>
    1792:	00498693          	addi	a3,s3,4
    1796:	0136b833          	sltu	a6,a3,s3
    179a:	9642                	add	a2,a2,a6
    179c:	89b6                	mv	s3,a3
    179e:	00861793          	slli	a5,a2,0x8
    17a2:	1c07d663          	bgez	a5,196e <__subdf3+0x302>
    17a6:	00148713          	addi	a4,s1,1
    17aa:	7ff00793          	li	a5,2047
    17ae:	8805                	andi	s0,s0,1
    17b0:	20f70663          	beq	a4,a5,19bc <__subdf3+0x350>
    17b4:	ff8007b7          	lui	a5,0xff800
    17b8:	17fd                	addi	a5,a5,-1
    17ba:	8ff1                	and	a5,a5,a2
    17bc:	01d79813          	slli	a6,a5,0x1d
    17c0:	0039d993          	srli	s3,s3,0x3
    17c4:	07a6                	slli	a5,a5,0x9
    17c6:	01386833          	or	a6,a6,s3
    17ca:	83b1                	srli	a5,a5,0xc
    17cc:	7ff77713          	andi	a4,a4,2047
    17d0:	00c79693          	slli	a3,a5,0xc
    17d4:	0752                	slli	a4,a4,0x14
    17d6:	82b1                	srli	a3,a3,0xc
    17d8:	047e                	slli	s0,s0,0x1f
    17da:	8ed9                	or	a3,a3,a4
    17dc:	8ec1                	or	a3,a3,s0
    17de:	40f2                	lw	ra,28(sp)
    17e0:	4462                	lw	s0,24(sp)
    17e2:	44d2                	lw	s1,20(sp)
    17e4:	4942                	lw	s2,16(sp)
    17e6:	49b2                	lw	s3,12(sp)
    17e8:	8542                	mv	a0,a6
    17ea:	85b6                	mv	a1,a3
    17ec:	6105                	addi	sp,sp,32
    17ee:	8082                	ret
    17f0:	0ab05663          	blez	a1,189c <__subdf3+0x230>
    17f4:	12088a63          	beqz	a7,1928 <__subdf3+0x2bc>
    17f8:	008007b7          	lui	a5,0x800
    17fc:	8f5d                	or	a4,a4,a5
    17fe:	2dc48763          	beq	s1,t3,1acc <__subdf3+0x460>
    1802:	03800793          	li	a5,56
    1806:	18b7c763          	blt	a5,a1,1994 <__subdf3+0x328>
    180a:	47fd                	li	a5,31
    180c:	3cb7d263          	bge	a5,a1,1bd0 <__subdf3+0x564>
    1810:	fe058813          	addi	a6,a1,-32
    1814:	02000793          	li	a5,32
    1818:	010759b3          	srl	s3,a4,a6
    181c:	00f58a63          	beq	a1,a5,1830 <__subdf3+0x1c4>
    1820:	04000793          	li	a5,64
    1824:	40b785b3          	sub	a1,a5,a1
    1828:	00b71733          	sll	a4,a4,a1
    182c:	00eeeeb3          	or	t4,t4,a4
    1830:	01d03833          	snez	a6,t4
    1834:	01386833          	or	a6,a6,s3
    1838:	a295                	j	199c <__subdf3+0x330>
    183a:	01d767b3          	or	a5,a4,t4
    183e:	80148593          	addi	a1,s1,-2047
    1842:	e399                	bnez	a5,1848 <__subdf3+0x1dc>
    1844:	0016c693          	xori	a3,a3,1
    1848:	04d40a63          	beq	s0,a3,189c <__subdf3+0x230>
    184c:	e1d1                	bnez	a1,18d0 <__subdf3+0x264>
    184e:	00148793          	addi	a5,s1,1
    1852:	7fe7f793          	andi	a5,a5,2046
    1856:	1e079963          	bnez	a5,1a48 <__subdf3+0x3dc>
    185a:	01e367b3          	or	a5,t1,t5
    185e:	01d76833          	or	a6,a4,t4
    1862:	16049263          	bnez	s1,19c6 <__subdf3+0x35a>
    1866:	3c078263          	beqz	a5,1c2a <__subdf3+0x5be>
    186a:	42081663          	bnez	a6,1c96 <__subdf3+0x62a>
    186e:	00351813          	slli	a6,a0,0x3
    1872:	01d31693          	slli	a3,t1,0x1d
    1876:	00385813          	srli	a6,a6,0x3
    187a:	0106e833          	or	a6,a3,a6
    187e:	00335793          	srli	a5,t1,0x3
    1882:	a219                	j	1988 <__subdf3+0x31c>
    1884:	01d767b3          	or	a5,a4,t4
    1888:	1a078563          	beqz	a5,1a32 <__subdf3+0x3c6>
    188c:	fff58793          	addi	a5,a1,-1
    1890:	3a078b63          	beqz	a5,1c46 <__subdf3+0x5da>
    1894:	23c58c63          	beq	a1,t3,1acc <__subdf3+0x460>
    1898:	85be                	mv	a1,a5
    189a:	b589                	j	16dc <__subdf3+0x70>
    189c:	1c059963          	bnez	a1,1a6e <__subdf3+0x402>
    18a0:	00148693          	addi	a3,s1,1
    18a4:	7fe6f793          	andi	a5,a3,2046
    18a8:	efc1                	bnez	a5,1940 <__subdf3+0x2d4>
    18aa:	01e367b3          	or	a5,t1,t5
    18ae:	36049063          	bnez	s1,1c0e <__subdf3+0x5a2>
    18b2:	44078d63          	beqz	a5,1d0c <__subdf3+0x6a0>
    18b6:	01d767b3          	or	a5,a4,t4
    18ba:	46079463          	bnez	a5,1d22 <__subdf3+0x6b6>
    18be:	050e                	slli	a0,a0,0x3
    18c0:	01d31813          	slli	a6,t1,0x1d
    18c4:	810d                	srli	a0,a0,0x3
    18c6:	00a86833          	or	a6,a6,a0
    18ca:	00335793          	srli	a5,t1,0x3
    18ce:	a86d                	j	1988 <__subdf3+0x31c>
    18d0:	409885b3          	sub	a1,a7,s1
    18d4:	20049763          	bnez	s1,1ae2 <__subdf3+0x476>
    18d8:	01e367b3          	or	a5,t1,t5
    18dc:	30078d63          	beqz	a5,1bf6 <__subdf3+0x58a>
    18e0:	fff58793          	addi	a5,a1,-1
    18e4:	40078963          	beqz	a5,1cf6 <__subdf3+0x68a>
    18e8:	7ff00513          	li	a0,2047
    18ec:	20a58363          	beq	a1,a0,1af2 <__subdf3+0x486>
    18f0:	85be                	mv	a1,a5
    18f2:	03800793          	li	a5,56
    18f6:	2ab7c263          	blt	a5,a1,1b9a <__subdf3+0x52e>
    18fa:	47fd                	li	a5,31
    18fc:	3cb7c863          	blt	a5,a1,1ccc <__subdf3+0x660>
    1900:	02000793          	li	a5,32
    1904:	8f8d                	sub	a5,a5,a1
    1906:	00f31833          	sll	a6,t1,a5
    190a:	00bf5633          	srl	a2,t5,a1
    190e:	00ff17b3          	sll	a5,t5,a5
    1912:	00c86833          	or	a6,a6,a2
    1916:	00f039b3          	snez	s3,a5
    191a:	00b35333          	srl	t1,t1,a1
    191e:	01386833          	or	a6,a6,s3
    1922:	40670733          	sub	a4,a4,t1
    1926:	acb5                	j	1ba2 <__subdf3+0x536>
    1928:	01d767b3          	or	a5,a4,t4
    192c:	10078363          	beqz	a5,1a32 <__subdf3+0x3c6>
    1930:	fff58793          	addi	a5,a1,-1
    1934:	1e078f63          	beqz	a5,1b32 <__subdf3+0x4c6>
    1938:	2fc58063          	beq	a1,t3,1c18 <__subdf3+0x5ac>
    193c:	85be                	mv	a1,a5
    193e:	b5d1                	j	1802 <__subdf3+0x196>
    1940:	7ff00793          	li	a5,2047
    1944:	06f68b63          	beq	a3,a5,19ba <__subdf3+0x34e>
    1948:	9efa                	add	t4,t4,t5
    194a:	01eeb633          	sltu	a2,t4,t5
    194e:	00e307b3          	add	a5,t1,a4
    1952:	97b2                	add	a5,a5,a2
    1954:	01f79813          	slli	a6,a5,0x1f
    1958:	001ede93          	srli	t4,t4,0x1
    195c:	01d869b3          	or	s3,a6,t4
    1960:	0017d613          	srli	a2,a5,0x1
    1964:	84b6                	mv	s1,a3
    1966:	0079f793          	andi	a5,s3,7
    196a:	e0079fe3          	bnez	a5,1788 <__subdf3+0x11c>
    196e:	01d61793          	slli	a5,a2,0x1d
    1972:	0039d813          	srli	a6,s3,0x3
    1976:	00f86833          	or	a6,a6,a5
    197a:	85a6                	mv	a1,s1
    197c:	00365793          	srli	a5,a2,0x3
    1980:	7ff00713          	li	a4,2047
    1984:	06e58063          	beq	a1,a4,19e4 <__subdf3+0x378>
    1988:	07b2                	slli	a5,a5,0xc
    198a:	83b1                	srli	a5,a5,0xc
    198c:	7ff5f713          	andi	a4,a1,2047
    1990:	8805                	andi	s0,s0,1
    1992:	bd3d                	j	17d0 <__subdf3+0x164>
    1994:	01d76733          	or	a4,a4,t4
    1998:	00e03833          	snez	a6,a4
    199c:	01e809b3          	add	s3,a6,t5
    19a0:	01e9b7b3          	sltu	a5,s3,t5
    19a4:	00678633          	add	a2,a5,t1
    19a8:	00861793          	slli	a5,a2,0x8
    19ac:	fa07dde3          	bgez	a5,1966 <__subdf3+0x2fa>
    19b0:	0485                	addi	s1,s1,1
    19b2:	7ff00793          	li	a5,2047
    19b6:	18f49c63          	bne	s1,a5,1b4e <__subdf3+0x4e2>
    19ba:	8805                	andi	s0,s0,1
    19bc:	7ff00713          	li	a4,2047
    19c0:	4781                	li	a5,0
    19c2:	4801                	li	a6,0
    19c4:	b531                	j	17d0 <__subdf3+0x164>
    19c6:	10079163          	bnez	a5,1ac8 <__subdf3+0x45c>
    19ca:	3c080163          	beqz	a6,1d8c <__subdf3+0x720>
    19ce:	00361813          	slli	a6,a2,0x3
    19d2:	01d71793          	slli	a5,a4,0x1d
    19d6:	00385813          	srli	a6,a6,0x3
    19da:	00f86833          	or	a6,a6,a5
    19de:	8436                	mv	s0,a3
    19e0:	00375793          	srli	a5,a4,0x3
    19e4:	00f867b3          	or	a5,a6,a5
    19e8:	dbe9                	beqz	a5,19ba <__subdf3+0x34e>
    19ea:	4401                	li	s0,0
    19ec:	7ff00713          	li	a4,2047
    19f0:	000807b7          	lui	a5,0x80
    19f4:	4801                	li	a6,0
    19f6:	bbe9                	j	17d0 <__subdf3+0x164>
    19f8:	ff800637          	lui	a2,0xff800
    19fc:	167d                	addi	a2,a2,-1
    19fe:	8e7d                	and	a2,a2,a5
    1a00:	0079f793          	andi	a5,s3,7
    1a04:	8c99                	sub	s1,s1,a4
    1a06:	d80791e3          	bnez	a5,1788 <__subdf3+0x11c>
    1a0a:	b795                	j	196e <__subdf3+0x302>
    1a0c:	854e                	mv	a0,s3
    1a0e:	4f2010ef          	jal	ra,2f00 <__clzsi2>
    1a12:	01850713          	addi	a4,a0,24
    1a16:	47fd                	li	a5,31
    1a18:	d2e7d2e3          	bge	a5,a4,173c <__subdf3+0xd0>
    1a1c:	ff850613          	addi	a2,a0,-8
    1a20:	00c997b3          	sll	a5,s3,a2
    1a24:	4981                	li	s3,0
    1a26:	b32d                	j	1750 <__subdf3+0xe4>
    1a28:	01d76833          	or	a6,a4,t4
    1a2c:	01003833          	snez	a6,a6
    1a30:	b1c5                	j	1710 <__subdf3+0xa4>
    1a32:	00351813          	slli	a6,a0,0x3
    1a36:	01d31793          	slli	a5,t1,0x1d
    1a3a:	00385813          	srli	a6,a6,0x3
    1a3e:	00f86833          	or	a6,a6,a5
    1a42:	00335793          	srli	a5,t1,0x3
    1a46:	bf2d                	j	1980 <__subdf3+0x314>
    1a48:	41df09b3          	sub	s3,t5,t4
    1a4c:	40e30933          	sub	s2,t1,a4
    1a50:	013f3633          	sltu	a2,t5,s3
    1a54:	40c90933          	sub	s2,s2,a2
    1a58:	00891793          	slli	a5,s2,0x8
    1a5c:	2007ca63          	bltz	a5,1c70 <__subdf3+0x604>
    1a60:	0129e833          	or	a6,s3,s2
    1a64:	cc0815e3          	bnez	a6,172e <__subdf3+0xc2>
    1a68:	4781                	li	a5,0
    1a6a:	4401                	li	s0,0
    1a6c:	bf31                	j	1988 <__subdf3+0x31c>
    1a6e:	409885b3          	sub	a1,a7,s1
    1a72:	14048163          	beqz	s1,1bb4 <__subdf3+0x548>
    1a76:	008006b7          	lui	a3,0x800
    1a7a:	7ff00793          	li	a5,2047
    1a7e:	00d36333          	or	t1,t1,a3
    1a82:	20f88163          	beq	a7,a5,1c84 <__subdf3+0x618>
    1a86:	03800793          	li	a5,56
    1a8a:	22b7cc63          	blt	a5,a1,1cc2 <__subdf3+0x656>
    1a8e:	47fd                	li	a5,31
    1a90:	2cb7c963          	blt	a5,a1,1d62 <__subdf3+0x6f6>
    1a94:	02000793          	li	a5,32
    1a98:	8f8d                	sub	a5,a5,a1
    1a9a:	00f31833          	sll	a6,t1,a5
    1a9e:	00bf56b3          	srl	a3,t5,a1
    1aa2:	00ff17b3          	sll	a5,t5,a5
    1aa6:	00d86833          	or	a6,a6,a3
    1aaa:	00f039b3          	snez	s3,a5
    1aae:	00b35333          	srl	t1,t1,a1
    1ab2:	01386833          	or	a6,a6,s3
    1ab6:	971a                	add	a4,a4,t1
    1ab8:	01d809b3          	add	s3,a6,t4
    1abc:	01d9b7b3          	sltu	a5,s3,t4
    1ac0:	00e78633          	add	a2,a5,a4
    1ac4:	84c6                	mv	s1,a7
    1ac6:	b5cd                	j	19a8 <__subdf3+0x33c>
    1ac8:	f20811e3          	bnez	a6,19ea <__subdf3+0x37e>
    1acc:	00351813          	slli	a6,a0,0x3
    1ad0:	01d31793          	slli	a5,t1,0x1d
    1ad4:	00385813          	srli	a6,a6,0x3
    1ad8:	00f86833          	or	a6,a6,a5
    1adc:	00335793          	srli	a5,t1,0x3
    1ae0:	b711                	j	19e4 <__subdf3+0x378>
    1ae2:	00800537          	lui	a0,0x800
    1ae6:	7ff00793          	li	a5,2047
    1aea:	00a36333          	or	t1,t1,a0
    1aee:	e0f892e3          	bne	a7,a5,18f2 <__subdf3+0x286>
    1af2:	060e                	slli	a2,a2,0x3
    1af4:	01d71813          	slli	a6,a4,0x1d
    1af8:	820d                	srli	a2,a2,0x3
    1afa:	00c86833          	or	a6,a6,a2
    1afe:	00375793          	srli	a5,a4,0x3
    1b02:	8436                	mv	s0,a3
    1b04:	b5c5                	j	19e4 <__subdf3+0x378>
    1b06:	1705                	addi	a4,a4,-31
    1b08:	02000693          	li	a3,32
    1b0c:	00e7d733          	srl	a4,a5,a4
    1b10:	00d60a63          	beq	a2,a3,1b24 <__subdf3+0x4b8>
    1b14:	04000693          	li	a3,64
    1b18:	40c68633          	sub	a2,a3,a2
    1b1c:	00c79633          	sll	a2,a5,a2
    1b20:	00c9e9b3          	or	s3,s3,a2
    1b24:	01303833          	snez	a6,s3
    1b28:	00e869b3          	or	s3,a6,a4
    1b2c:	4601                	li	a2,0
    1b2e:	4481                	li	s1,0
    1b30:	bd1d                	j	1966 <__subdf3+0x2fa>
    1b32:	01df09b3          	add	s3,t5,t4
    1b36:	00e307b3          	add	a5,t1,a4
    1b3a:	01e9bf33          	sltu	t5,s3,t5
    1b3e:	01e78633          	add	a2,a5,t5
    1b42:	00861793          	slli	a5,a2,0x8
    1b46:	4485                	li	s1,1
    1b48:	e007dfe3          	bgez	a5,1966 <__subdf3+0x2fa>
    1b4c:	4489                	li	s1,2
    1b4e:	ff8007b7          	lui	a5,0xff800
    1b52:	17fd                	addi	a5,a5,-1
    1b54:	8ff1                	and	a5,a5,a2
    1b56:	0019d713          	srli	a4,s3,0x1
    1b5a:	0019f813          	andi	a6,s3,1
    1b5e:	01076833          	or	a6,a4,a6
    1b62:	01f79993          	slli	s3,a5,0x1f
    1b66:	0109e9b3          	or	s3,s3,a6
    1b6a:	0017d613          	srli	a2,a5,0x1
    1b6e:	b911                	j	1782 <__subdf3+0x116>
    1b70:	fe058813          	addi	a6,a1,-32
    1b74:	02000793          	li	a5,32
    1b78:	010759b3          	srl	s3,a4,a6
    1b7c:	00f58a63          	beq	a1,a5,1b90 <__subdf3+0x524>
    1b80:	04000793          	li	a5,64
    1b84:	40b785b3          	sub	a1,a5,a1
    1b88:	00b71733          	sll	a4,a4,a1
    1b8c:	00eeeeb3          	or	t4,t4,a4
    1b90:	01d03833          	snez	a6,t4
    1b94:	01386833          	or	a6,a6,s3
    1b98:	bea5                	j	1710 <__subdf3+0xa4>
    1b9a:	01e36333          	or	t1,t1,t5
    1b9e:	00603833          	snez	a6,t1
    1ba2:	410e89b3          	sub	s3,t4,a6
    1ba6:	013eb7b3          	sltu	a5,t4,s3
    1baa:	40f70633          	sub	a2,a4,a5
    1bae:	84c6                	mv	s1,a7
    1bb0:	8436                	mv	s0,a3
    1bb2:	b6ad                	j	171c <__subdf3+0xb0>
    1bb4:	01e367b3          	or	a5,t1,t5
    1bb8:	18078763          	beqz	a5,1d46 <__subdf3+0x6da>
    1bbc:	fff58793          	addi	a5,a1,-1
    1bc0:	1c078c63          	beqz	a5,1d98 <__subdf3+0x72c>
    1bc4:	7ff00693          	li	a3,2047
    1bc8:	0ad58e63          	beq	a1,a3,1c84 <__subdf3+0x618>
    1bcc:	85be                	mv	a1,a5
    1bce:	bd65                	j	1a86 <__subdf3+0x41a>
    1bd0:	02000793          	li	a5,32
    1bd4:	8f8d                	sub	a5,a5,a1
    1bd6:	00bed9b3          	srl	s3,t4,a1
    1bda:	00f71833          	sll	a6,a4,a5
    1bde:	00fe9eb3          	sll	t4,t4,a5
    1be2:	01386833          	or	a6,a6,s3
    1be6:	00b75733          	srl	a4,a4,a1
    1bea:	01d039b3          	snez	s3,t4
    1bee:	01386833          	or	a6,a6,s3
    1bf2:	933a                	add	t1,t1,a4
    1bf4:	b365                	j	199c <__subdf3+0x330>
    1bf6:	00361813          	slli	a6,a2,0x3
    1bfa:	01d71793          	slli	a5,a4,0x1d
    1bfe:	00385813          	srli	a6,a6,0x3
    1c02:	0107e833          	or	a6,a5,a6
    1c06:	8436                	mv	s0,a3
    1c08:	00375793          	srli	a5,a4,0x3
    1c0c:	bb95                	j	1980 <__subdf3+0x314>
    1c0e:	cbbd                	beqz	a5,1c84 <__subdf3+0x618>
    1c10:	01d76733          	or	a4,a4,t4
    1c14:	dc071be3          	bnez	a4,19ea <__subdf3+0x37e>
    1c18:	050e                	slli	a0,a0,0x3
    1c1a:	01d31813          	slli	a6,t1,0x1d
    1c1e:	810d                	srli	a0,a0,0x3
    1c20:	00a86833          	or	a6,a6,a0
    1c24:	00335793          	srli	a5,t1,0x3
    1c28:	bb75                	j	19e4 <__subdf3+0x378>
    1c2a:	e2080fe3          	beqz	a6,1a68 <__subdf3+0x3fc>
    1c2e:	00361813          	slli	a6,a2,0x3
    1c32:	01d71793          	slli	a5,a4,0x1d
    1c36:	00385813          	srli	a6,a6,0x3
    1c3a:	00f86833          	or	a6,a6,a5
    1c3e:	8436                	mv	s0,a3
    1c40:	00375793          	srli	a5,a4,0x3
    1c44:	b391                	j	1988 <__subdf3+0x31c>
    1c46:	41df09b3          	sub	s3,t5,t4
    1c4a:	40e307b3          	sub	a5,t1,a4
    1c4e:	013f3f33          	sltu	t5,t5,s3
    1c52:	41e78633          	sub	a2,a5,t5
    1c56:	4485                	li	s1,1
    1c58:	b4d1                	j	171c <__subdf3+0xb0>
    1c5a:	00351813          	slli	a6,a0,0x3
    1c5e:	01d31693          	slli	a3,t1,0x1d
    1c62:	00385813          	srli	a6,a6,0x3
    1c66:	0106e833          	or	a6,a3,a6
    1c6a:	00335793          	srli	a5,t1,0x3
    1c6e:	bb9d                	j	19e4 <__subdf3+0x378>
    1c70:	41ee89b3          	sub	s3,t4,t5
    1c74:	40670633          	sub	a2,a4,t1
    1c78:	013eb933          	sltu	s2,t4,s3
    1c7c:	41260933          	sub	s2,a2,s2
    1c80:	8436                	mv	s0,a3
    1c82:	b475                	j	172e <__subdf3+0xc2>
    1c84:	060e                	slli	a2,a2,0x3
    1c86:	01d71813          	slli	a6,a4,0x1d
    1c8a:	820d                	srli	a2,a2,0x3
    1c8c:	00c86833          	or	a6,a6,a2
    1c90:	00375793          	srli	a5,a4,0x3
    1c94:	bb81                	j	19e4 <__subdf3+0x378>
    1c96:	41df09b3          	sub	s3,t5,t4
    1c9a:	40e307b3          	sub	a5,t1,a4
    1c9e:	013f3633          	sltu	a2,t5,s3
    1ca2:	40c78633          	sub	a2,a5,a2
    1ca6:	00861793          	slli	a5,a2,0x8
    1caa:	0a07d763          	bgez	a5,1d58 <__subdf3+0x6ec>
    1cae:	41ee89b3          	sub	s3,t4,t5
    1cb2:	406707b3          	sub	a5,a4,t1
    1cb6:	013ebeb3          	sltu	t4,t4,s3
    1cba:	41d78633          	sub	a2,a5,t4
    1cbe:	8436                	mv	s0,a3
    1cc0:	b4c9                	j	1782 <__subdf3+0x116>
    1cc2:	01e36333          	or	t1,t1,t5
    1cc6:	00603833          	snez	a6,t1
    1cca:	b3fd                	j	1ab8 <__subdf3+0x44c>
    1ccc:	fe058813          	addi	a6,a1,-32
    1cd0:	02000793          	li	a5,32
    1cd4:	010359b3          	srl	s3,t1,a6
    1cd8:	00f58a63          	beq	a1,a5,1cec <__subdf3+0x680>
    1cdc:	04000793          	li	a5,64
    1ce0:	40b785b3          	sub	a1,a5,a1
    1ce4:	00b31333          	sll	t1,t1,a1
    1ce8:	006f6f33          	or	t5,t5,t1
    1cec:	01e03833          	snez	a6,t5
    1cf0:	01386833          	or	a6,a6,s3
    1cf4:	b57d                	j	1ba2 <__subdf3+0x536>
    1cf6:	41ee89b3          	sub	s3,t4,t5
    1cfa:	406707b3          	sub	a5,a4,t1
    1cfe:	013ebeb3          	sltu	t4,t4,s3
    1d02:	41d78633          	sub	a2,a5,t4
    1d06:	8436                	mv	s0,a3
    1d08:	4485                	li	s1,1
    1d0a:	bc09                	j	171c <__subdf3+0xb0>
    1d0c:	00361813          	slli	a6,a2,0x3
    1d10:	01d71793          	slli	a5,a4,0x1d
    1d14:	00385813          	srli	a6,a6,0x3
    1d18:	00f86833          	or	a6,a6,a5
    1d1c:	00375793          	srli	a5,a4,0x3
    1d20:	b1a5                	j	1988 <__subdf3+0x31c>
    1d22:	01df09b3          	add	s3,t5,t4
    1d26:	00e307b3          	add	a5,t1,a4
    1d2a:	01e9bf33          	sltu	t5,s3,t5
    1d2e:	01e78633          	add	a2,a5,t5
    1d32:	00861793          	slli	a5,a2,0x8
    1d36:	c207d8e3          	bgez	a5,1966 <__subdf3+0x2fa>
    1d3a:	ff8007b7          	lui	a5,0xff800
    1d3e:	17fd                	addi	a5,a5,-1
    1d40:	8e7d                	and	a2,a2,a5
    1d42:	4485                	li	s1,1
    1d44:	b10d                	j	1966 <__subdf3+0x2fa>
    1d46:	060e                	slli	a2,a2,0x3
    1d48:	01d71813          	slli	a6,a4,0x1d
    1d4c:	820d                	srli	a2,a2,0x3
    1d4e:	00c86833          	or	a6,a6,a2
    1d52:	00375793          	srli	a5,a4,0x3
    1d56:	b12d                	j	1980 <__subdf3+0x314>
    1d58:	00c9e833          	or	a6,s3,a2
    1d5c:	d00806e3          	beqz	a6,1a68 <__subdf3+0x3fc>
    1d60:	b119                	j	1966 <__subdf3+0x2fa>
    1d62:	fe058813          	addi	a6,a1,-32
    1d66:	02000793          	li	a5,32
    1d6a:	010359b3          	srl	s3,t1,a6
    1d6e:	00f58a63          	beq	a1,a5,1d82 <__subdf3+0x716>
    1d72:	04000793          	li	a5,64
    1d76:	40b785b3          	sub	a1,a5,a1
    1d7a:	00b31333          	sll	t1,t1,a1
    1d7e:	006f6f33          	or	t5,t5,t1
    1d82:	01e03833          	snez	a6,t5
    1d86:	01386833          	or	a6,a6,s3
    1d8a:	b33d                	j	1ab8 <__subdf3+0x44c>
    1d8c:	4401                	li	s0,0
    1d8e:	7ff00713          	li	a4,2047
    1d92:	000807b7          	lui	a5,0x80
    1d96:	bc2d                	j	17d0 <__subdf3+0x164>
    1d98:	01df09b3          	add	s3,t5,t4
    1d9c:	00e307b3          	add	a5,t1,a4
    1da0:	01d9beb3          	sltu	t4,s3,t4
    1da4:	01d78633          	add	a2,a5,t4
    1da8:	bb69                	j	1b42 <__subdf3+0x4d6>

00001daa <__addsf3>:
    1daa:	1141                	addi	sp,sp,-16
    1dac:	00800737          	lui	a4,0x800
    1db0:	177d                	addi	a4,a4,-1
    1db2:	0175d813          	srli	a6,a1,0x17
    1db6:	c226                	sw	s1,4(sp)
    1db8:	01755493          	srli	s1,a0,0x17
    1dbc:	00a77333          	and	t1,a4,a0
    1dc0:	0ff4f493          	andi	s1,s1,255
    1dc4:	00b776b3          	and	a3,a4,a1
    1dc8:	c04a                	sw	s2,0(sp)
    1dca:	0ff87813          	andi	a6,a6,255
    1dce:	01f55913          	srli	s2,a0,0x1f
    1dd2:	c606                	sw	ra,12(sp)
    1dd4:	c422                	sw	s0,8(sp)
    1dd6:	81fd                	srli	a1,a1,0x1f
    1dd8:	879a                	mv	a5,t1
    1dda:	8526                	mv	a0,s1
    1ddc:	864a                	mv	a2,s2
    1dde:	00331e13          	slli	t3,t1,0x3
    1de2:	00369e93          	slli	t4,a3,0x3
    1de6:	410488b3          	sub	a7,s1,a6
    1dea:	0eb90a63          	beq	s2,a1,1ede <__addsf3+0x134>
    1dee:	0d105063          	blez	a7,1eae <__addsf3+0x104>
    1df2:	14080463          	beqz	a6,1f3a <__addsf3+0x190>
    1df6:	0ff00793          	li	a5,255
    1dfa:	14f48b63          	beq	s1,a5,1f50 <__addsf3+0x1a6>
    1dfe:	040007b7          	lui	a5,0x4000
    1e02:	00feeeb3          	or	t4,t4,a5
    1e06:	47ed                	li	a5,27
    1e08:	2917c163          	blt	a5,a7,208a <__addsf3+0x2e0>
    1e0c:	02000793          	li	a5,32
    1e10:	411787b3          	sub	a5,a5,a7
    1e14:	00fe97b3          	sll	a5,t4,a5
    1e18:	011ed8b3          	srl	a7,t4,a7
    1e1c:	00f037b3          	snez	a5,a5
    1e20:	00f8e7b3          	or	a5,a7,a5
    1e24:	40fe07b3          	sub	a5,t3,a5
    1e28:	00579713          	slli	a4,a5,0x5
    1e2c:	18075e63          	bgez	a4,1fc8 <__addsf3+0x21e>
    1e30:	04000437          	lui	s0,0x4000
    1e34:	147d                	addi	s0,s0,-1
    1e36:	8c7d                	and	s0,s0,a5
    1e38:	8522                	mv	a0,s0
    1e3a:	0c6010ef          	jal	ra,2f00 <__clzsi2>
    1e3e:	156d                	addi	a0,a0,-5
    1e40:	00a417b3          	sll	a5,s0,a0
    1e44:	1a954863          	blt	a0,s1,1ff4 <__addsf3+0x24a>
    1e48:	8d05                	sub	a0,a0,s1
    1e4a:	00150413          	addi	s0,a0,1 # 800001 <_data_lma+0x7fb319>
    1e4e:	02000713          	li	a4,32
    1e52:	8f01                	sub	a4,a4,s0
    1e54:	00e79733          	sll	a4,a5,a4
    1e58:	00e03733          	snez	a4,a4
    1e5c:	0087d7b3          	srl	a5,a5,s0
    1e60:	8fd9                	or	a5,a5,a4
    1e62:	4481                	li	s1,0
    1e64:	0077f713          	andi	a4,a5,7
    1e68:	c719                	beqz	a4,1e76 <__addsf3+0xcc>
    1e6a:	00f7f713          	andi	a4,a5,15
    1e6e:	4691                	li	a3,4
    1e70:	00d70363          	beq	a4,a3,1e76 <__addsf3+0xcc>
    1e74:	0791                	addi	a5,a5,4
    1e76:	00579713          	slli	a4,a5,0x5
    1e7a:	14075b63          	bgez	a4,1fd0 <__addsf3+0x226>
    1e7e:	0485                	addi	s1,s1,1
    1e80:	0ff00713          	li	a4,255
    1e84:	864a                	mv	a2,s2
    1e86:	16e48363          	beq	s1,a4,1fec <__addsf3+0x242>
    1e8a:	079a                	slli	a5,a5,0x6
    1e8c:	83a5                	srli	a5,a5,0x9
    1e8e:	0ff4f513          	andi	a0,s1,255
    1e92:	40b2                	lw	ra,12(sp)
    1e94:	4422                	lw	s0,8(sp)
    1e96:	07a6                	slli	a5,a5,0x9
    1e98:	01751493          	slli	s1,a0,0x17
    1e9c:	0097d513          	srli	a0,a5,0x9
    1ea0:	8d45                	or	a0,a0,s1
    1ea2:	067e                	slli	a2,a2,0x1f
    1ea4:	4492                	lw	s1,4(sp)
    1ea6:	4902                	lw	s2,0(sp)
    1ea8:	8d51                	or	a0,a0,a2
    1eaa:	0141                	addi	sp,sp,16
    1eac:	8082                	ret
    1eae:	0a089963          	bnez	a7,1f60 <__addsf3+0x1b6>
    1eb2:	00148713          	addi	a4,s1,1
    1eb6:	0fe77713          	andi	a4,a4,254
    1eba:	14071763          	bnez	a4,2008 <__addsf3+0x25e>
    1ebe:	22049063          	bnez	s1,20de <__addsf3+0x334>
    1ec2:	1e0e0d63          	beqz	t3,20bc <__addsf3+0x312>
    1ec6:	fc0e86e3          	beqz	t4,1e92 <__addsf3+0xe8>
    1eca:	41de07b3          	sub	a5,t3,t4
    1ece:	00579713          	slli	a4,a5,0x5
    1ed2:	22075063          	bgez	a4,20f2 <__addsf3+0x348>
    1ed6:	41ce87b3          	sub	a5,t4,t3
    1eda:	892e                	mv	s2,a1
    1edc:	b761                	j	1e64 <__addsf3+0xba>
    1ede:	0b105c63          	blez	a7,1f96 <__addsf3+0x1ec>
    1ee2:	08080e63          	beqz	a6,1f7e <__addsf3+0x1d4>
    1ee6:	0ff00793          	li	a5,255
    1eea:	06f48363          	beq	s1,a5,1f50 <__addsf3+0x1a6>
    1eee:	040007b7          	lui	a5,0x4000
    1ef2:	00feeeb3          	or	t4,t4,a5
    1ef6:	47ed                	li	a5,27
    1ef8:	1f17c963          	blt	a5,a7,20ea <__addsf3+0x340>
    1efc:	02000793          	li	a5,32
    1f00:	411787b3          	sub	a5,a5,a7
    1f04:	00fe97b3          	sll	a5,t4,a5
    1f08:	011ed8b3          	srl	a7,t4,a7
    1f0c:	00f037b3          	snez	a5,a5
    1f10:	00f8e7b3          	or	a5,a7,a5
    1f14:	97f2                	add	a5,a5,t3
    1f16:	00579713          	slli	a4,a5,0x5
    1f1a:	0a075763          	bgez	a4,1fc8 <__addsf3+0x21e>
    1f1e:	0485                	addi	s1,s1,1
    1f20:	0ff00713          	li	a4,255
    1f24:	0ce48463          	beq	s1,a4,1fec <__addsf3+0x242>
    1f28:	7e0006b7          	lui	a3,0x7e000
    1f2c:	0017d713          	srli	a4,a5,0x1
    1f30:	16fd                	addi	a3,a3,-1
    1f32:	8b85                	andi	a5,a5,1
    1f34:	8f75                	and	a4,a4,a3
    1f36:	8fd9                	or	a5,a5,a4
    1f38:	b735                	j	1e64 <__addsf3+0xba>
    1f3a:	080e8d63          	beqz	t4,1fd4 <__addsf3+0x22a>
    1f3e:	18fd                	addi	a7,a7,-1
    1f40:	41de07b3          	sub	a5,t3,t4
    1f44:	ee0882e3          	beqz	a7,1e28 <__addsf3+0x7e>
    1f48:	0ff00793          	li	a5,255
    1f4c:	eaf49de3          	bne	s1,a5,1e06 <__addsf3+0x5c>
    1f50:	08030d63          	beqz	t1,1fea <__addsf3+0x240>
    1f54:	4601                	li	a2,0
    1f56:	0ff00513          	li	a0,255
    1f5a:	004007b7          	lui	a5,0x400
    1f5e:	bf15                	j	1e92 <__addsf3+0xe8>
    1f60:	40980733          	sub	a4,a6,s1
    1f64:	e8ed                	bnez	s1,2056 <__addsf3+0x2ac>
    1f66:	140e0263          	beqz	t3,20aa <__addsf3+0x300>
    1f6a:	177d                	addi	a4,a4,-1
    1f6c:	18070863          	beqz	a4,20fc <__addsf3+0x352>
    1f70:	0ff00793          	li	a5,255
    1f74:	0ef81963          	bne	a6,a5,2066 <__addsf3+0x2bc>
    1f78:	892e                	mv	s2,a1
    1f7a:	8336                	mv	t1,a3
    1f7c:	bfd1                	j	1f50 <__addsf3+0x1a6>
    1f7e:	040e8b63          	beqz	t4,1fd4 <__addsf3+0x22a>
    1f82:	18fd                	addi	a7,a7,-1
    1f84:	01de07b3          	add	a5,t3,t4
    1f88:	f80887e3          	beqz	a7,1f16 <__addsf3+0x16c>
    1f8c:	0ff00793          	li	a5,255
    1f90:	f6f493e3          	bne	s1,a5,1ef6 <__addsf3+0x14c>
    1f94:	bf75                	j	1f50 <__addsf3+0x1a6>
    1f96:	08089563          	bnez	a7,2020 <__addsf3+0x276>
    1f9a:	0485                	addi	s1,s1,1
    1f9c:	0fe4f713          	andi	a4,s1,254
    1fa0:	12071363          	bnez	a4,20c6 <__addsf3+0x31c>
    1fa4:	10051763          	bnez	a0,20b2 <__addsf3+0x308>
    1fa8:	140e0f63          	beqz	t3,2106 <__addsf3+0x35c>
    1fac:	ee0e83e3          	beqz	t4,1e92 <__addsf3+0xe8>
    1fb0:	01de07b3          	add	a5,t3,t4
    1fb4:	00579713          	slli	a4,a5,0x5
    1fb8:	4481                	li	s1,0
    1fba:	00075763          	bgez	a4,1fc8 <__addsf3+0x21e>
    1fbe:	fc000737          	lui	a4,0xfc000
    1fc2:	177d                	addi	a4,a4,-1
    1fc4:	8ff9                	and	a5,a5,a4
    1fc6:	4485                	li	s1,1
    1fc8:	0077f713          	andi	a4,a5,7
    1fcc:	e8071fe3          	bnez	a4,1e6a <__addsf3+0xc0>
    1fd0:	0037d313          	srli	t1,a5,0x3
    1fd4:	0ff00793          	li	a5,255
    1fd8:	f6f48ce3          	beq	s1,a5,1f50 <__addsf3+0x1a6>
    1fdc:	00931793          	slli	a5,t1,0x9
    1fe0:	83a5                	srli	a5,a5,0x9
    1fe2:	0ff4f513          	andi	a0,s1,255
    1fe6:	864a                	mv	a2,s2
    1fe8:	b56d                	j	1e92 <__addsf3+0xe8>
    1fea:	864a                	mv	a2,s2
    1fec:	0ff00513          	li	a0,255
    1ff0:	4781                	li	a5,0
    1ff2:	b545                	j	1e92 <__addsf3+0xe8>
    1ff4:	fc000737          	lui	a4,0xfc000
    1ff8:	177d                	addi	a4,a4,-1
    1ffa:	8ff9                	and	a5,a5,a4
    1ffc:	0077f713          	andi	a4,a5,7
    2000:	8c89                	sub	s1,s1,a0
    2002:	e60714e3          	bnez	a4,1e6a <__addsf3+0xc0>
    2006:	b7e9                	j	1fd0 <__addsf3+0x226>
    2008:	41de0433          	sub	s0,t3,t4
    200c:	00541793          	slli	a5,s0,0x5
    2010:	0c07c363          	bltz	a5,20d6 <__addsf3+0x32c>
    2014:	e20412e3          	bnez	s0,1e38 <__addsf3+0x8e>
    2018:	4601                	li	a2,0
    201a:	4501                	li	a0,0
    201c:	4781                	li	a5,0
    201e:	bd95                	j	1e92 <__addsf3+0xe8>
    2020:	40980733          	sub	a4,a6,s1
    2024:	c4ad                	beqz	s1,208e <__addsf3+0x2e4>
    2026:	0ff00793          	li	a5,255
    202a:	f4f808e3          	beq	a6,a5,1f7a <__addsf3+0x1d0>
    202e:	040007b7          	lui	a5,0x4000
    2032:	00fe6e33          	or	t3,t3,a5
    2036:	47ed                	li	a5,27
    2038:	0ce7cc63          	blt	a5,a4,2110 <__addsf3+0x366>
    203c:	02000793          	li	a5,32
    2040:	8f99                	sub	a5,a5,a4
    2042:	00fe17b3          	sll	a5,t3,a5
    2046:	00ee5733          	srl	a4,t3,a4
    204a:	00f037b3          	snez	a5,a5
    204e:	8fd9                	or	a5,a5,a4
    2050:	97f6                	add	a5,a5,t4
    2052:	84c2                	mv	s1,a6
    2054:	b5c9                	j	1f16 <__addsf3+0x16c>
    2056:	0ff00793          	li	a5,255
    205a:	f0f80fe3          	beq	a6,a5,1f78 <__addsf3+0x1ce>
    205e:	040007b7          	lui	a5,0x4000
    2062:	00fe6e33          	or	t3,t3,a5
    2066:	47ed                	li	a5,27
    2068:	08e7c363          	blt	a5,a4,20ee <__addsf3+0x344>
    206c:	02000693          	li	a3,32
    2070:	8e99                	sub	a3,a3,a4
    2072:	00de16b3          	sll	a3,t3,a3
    2076:	00ee57b3          	srl	a5,t3,a4
    207a:	00d03733          	snez	a4,a3
    207e:	8fd9                	or	a5,a5,a4
    2080:	40fe87b3          	sub	a5,t4,a5
    2084:	84c2                	mv	s1,a6
    2086:	892e                	mv	s2,a1
    2088:	b345                	j	1e28 <__addsf3+0x7e>
    208a:	4785                	li	a5,1
    208c:	bb61                	j	1e24 <__addsf3+0x7a>
    208e:	060e0e63          	beqz	t3,210a <__addsf3+0x360>
    2092:	177d                	addi	a4,a4,-1
    2094:	01de07b3          	add	a5,t3,t4
    2098:	84c2                	mv	s1,a6
    209a:	e6070ee3          	beqz	a4,1f16 <__addsf3+0x16c>
    209e:	0ff00793          	li	a5,255
    20a2:	f8f81ae3          	bne	a6,a5,2036 <__addsf3+0x28c>
    20a6:	8336                	mv	t1,a3
    20a8:	b565                	j	1f50 <__addsf3+0x1a6>
    20aa:	8336                	mv	t1,a3
    20ac:	84c2                	mv	s1,a6
    20ae:	892e                	mv	s2,a1
    20b0:	b715                	j	1fd4 <__addsf3+0x22a>
    20b2:	ec0e04e3          	beqz	t3,1f7a <__addsf3+0x1d0>
    20b6:	e80e8de3          	beqz	t4,1f50 <__addsf3+0x1a6>
    20ba:	bd69                	j	1f54 <__addsf3+0x1aa>
    20bc:	020e8d63          	beqz	t4,20f6 <__addsf3+0x34c>
    20c0:	862e                	mv	a2,a1
    20c2:	87b6                	mv	a5,a3
    20c4:	b3f9                	j	1e92 <__addsf3+0xe8>
    20c6:	0ff00793          	li	a5,255
    20ca:	f2f481e3          	beq	s1,a5,1fec <__addsf3+0x242>
    20ce:	01de07b3          	add	a5,t3,t4
    20d2:	8385                	srli	a5,a5,0x1
    20d4:	bdd5                	j	1fc8 <__addsf3+0x21e>
    20d6:	41ce8433          	sub	s0,t4,t3
    20da:	892e                	mv	s2,a1
    20dc:	bbb1                	j	1e38 <__addsf3+0x8e>
    20de:	fc0e1ce3          	bnez	t3,20b6 <__addsf3+0x30c>
    20e2:	e60e89e3          	beqz	t4,1f54 <__addsf3+0x1aa>
    20e6:	892e                	mv	s2,a1
    20e8:	bd49                	j	1f7a <__addsf3+0x1d0>
    20ea:	4785                	li	a5,1
    20ec:	b525                	j	1f14 <__addsf3+0x16a>
    20ee:	4785                	li	a5,1
    20f0:	bf41                	j	2080 <__addsf3+0x2d6>
    20f2:	ec079be3          	bnez	a5,1fc8 <__addsf3+0x21e>
    20f6:	4601                	li	a2,0
    20f8:	4781                	li	a5,0
    20fa:	bb61                	j	1e92 <__addsf3+0xe8>
    20fc:	41ce87b3          	sub	a5,t4,t3
    2100:	84c2                	mv	s1,a6
    2102:	892e                	mv	s2,a1
    2104:	b315                	j	1e28 <__addsf3+0x7e>
    2106:	87b6                	mv	a5,a3
    2108:	b369                	j	1e92 <__addsf3+0xe8>
    210a:	8336                	mv	t1,a3
    210c:	84c2                	mv	s1,a6
    210e:	b5d9                	j	1fd4 <__addsf3+0x22a>
    2110:	4785                	li	a5,1
    2112:	bf3d                	j	2050 <__addsf3+0x2a6>

00002114 <__divsf3>:
    2114:	7139                	addi	sp,sp,-64
    2116:	01755793          	srli	a5,a0,0x17
    211a:	d84a                	sw	s2,48(sp)
    211c:	d256                	sw	s5,36(sp)
    211e:	ce5e                	sw	s7,28(sp)
    2120:	00951a93          	slli	s5,a0,0x9
    2124:	01f55913          	srli	s2,a0,0x1f
    2128:	de06                	sw	ra,60(sp)
    212a:	dc22                	sw	s0,56(sp)
    212c:	da26                	sw	s1,52(sp)
    212e:	d64e                	sw	s3,44(sp)
    2130:	d452                	sw	s4,40(sp)
    2132:	d05a                	sw	s6,32(sp)
    2134:	0ff7f793          	andi	a5,a5,255
    2138:	009ada93          	srli	s5,s5,0x9
    213c:	8bca                	mv	s7,s2
    213e:	12078263          	beqz	a5,2262 <__divsf3+0x14e>
    2142:	0ff00713          	li	a4,255
    2146:	12e78463          	beq	a5,a4,226e <__divsf3+0x15a>
    214a:	0a8e                	slli	s5,s5,0x3
    214c:	04000737          	lui	a4,0x4000
    2150:	00eaeab3          	or	s5,s5,a4
    2154:	f8178a13          	addi	s4,a5,-127 # 3ffff81 <_data_lma+0x3ffb299>
    2158:	4401                	li	s0,0
    215a:	4b01                	li	s6,0
    215c:	0175d793          	srli	a5,a1,0x17
    2160:	00959493          	slli	s1,a1,0x9
    2164:	0ff7f793          	andi	a5,a5,255
    2168:	80a5                	srli	s1,s1,0x9
    216a:	01f5d993          	srli	s3,a1,0x1f
    216e:	c7fd                	beqz	a5,225c <__divsf3+0x148>
    2170:	0ff00713          	li	a4,255
    2174:	02e78763          	beq	a5,a4,21a2 <__divsf3+0x8e>
    2178:	048e                	slli	s1,s1,0x3
    217a:	f8178793          	addi	a5,a5,-127
    217e:	04000737          	lui	a4,0x4000
    2182:	8cd9                	or	s1,s1,a4
    2184:	40fa0a33          	sub	s4,s4,a5
    2188:	4681                	li	a3,0
    218a:	8c55                	or	s0,s0,a3
    218c:	00003717          	auipc	a4,0x3
    2190:	96070713          	addi	a4,a4,-1696 # 4aec <font_8x8+0x3bc>
    2194:	040a                	slli	s0,s0,0x2
    2196:	943a                	add	s0,s0,a4
    2198:	401c                	lw	a5,0(s0)
    219a:	01394933          	xor	s2,s2,s3
    219e:	97ba                	add	a5,a5,a4
    21a0:	8782                	jr	a5
    21a2:	f01a0a13          	addi	s4,s4,-255
    21a6:	e8f9                	bnez	s1,227c <__divsf3+0x168>
    21a8:	4689                	li	a3,2
    21aa:	8c55                	or	s0,s0,a3
    21ac:	00003717          	auipc	a4,0x3
    21b0:	98070713          	addi	a4,a4,-1664 # 4b2c <font_8x8+0x3fc>
    21b4:	040a                	slli	s0,s0,0x2
    21b6:	943a                	add	s0,s0,a4
    21b8:	401c                	lw	a5,0(s0)
    21ba:	01394933          	xor	s2,s2,s3
    21be:	97ba                	add	a5,a5,a4
    21c0:	8782                	jr	a5
    21c2:	4901                	li	s2,0
    21c4:	0ff00713          	li	a4,255
    21c8:	004007b7          	lui	a5,0x400
    21cc:	00979513          	slli	a0,a5,0x9
    21d0:	50f2                	lw	ra,60(sp)
    21d2:	5462                	lw	s0,56(sp)
    21d4:	01771793          	slli	a5,a4,0x17
    21d8:	8125                	srli	a0,a0,0x9
    21da:	097e                	slli	s2,s2,0x1f
    21dc:	8d5d                	or	a0,a0,a5
    21de:	01256533          	or	a0,a0,s2
    21e2:	54d2                	lw	s1,52(sp)
    21e4:	5942                	lw	s2,48(sp)
    21e6:	59b2                	lw	s3,44(sp)
    21e8:	5a22                	lw	s4,40(sp)
    21ea:	5a92                	lw	s5,36(sp)
    21ec:	5b02                	lw	s6,32(sp)
    21ee:	4bf2                	lw	s7,28(sp)
    21f0:	6121                	addi	sp,sp,64
    21f2:	8082                	ret
    21f4:	0ff00713          	li	a4,255
    21f8:	4781                	li	a5,0
    21fa:	bfc9                	j	21cc <__divsf3+0xb8>
    21fc:	8aa6                	mv	s5,s1
    21fe:	8bce                	mv	s7,s3
    2200:	8b36                	mv	s6,a3
    2202:	4789                	li	a5,2
    2204:	1afb0b63          	beq	s6,a5,23ba <__divsf3+0x2a6>
    2208:	478d                	li	a5,3
    220a:	fafb0ce3          	beq	s6,a5,21c2 <__divsf3+0xae>
    220e:	4785                	li	a5,1
    2210:	0afb0a63          	beq	s6,a5,22c4 <__divsf3+0x1b0>
    2214:	07fa0713          	addi	a4,s4,127
    2218:	001bf913          	andi	s2,s7,1
    221c:	12e05763          	blez	a4,234a <__divsf3+0x236>
    2220:	007af793          	andi	a5,s5,7
    2224:	c799                	beqz	a5,2232 <__divsf3+0x11e>
    2226:	00faf793          	andi	a5,s5,15
    222a:	4691                	li	a3,4
    222c:	00d78363          	beq	a5,a3,2232 <__divsf3+0x11e>
    2230:	0a91                	addi	s5,s5,4
    2232:	004a9793          	slli	a5,s5,0x4
    2236:	0007d963          	bgez	a5,2248 <__divsf3+0x134>
    223a:	f80007b7          	lui	a5,0xf8000
    223e:	17fd                	addi	a5,a5,-1
    2240:	00fafab3          	and	s5,s5,a5
    2244:	080a0713          	addi	a4,s4,128
    2248:	0fe00793          	li	a5,254
    224c:	fae7c4e3          	blt	a5,a4,21f4 <__divsf3+0xe0>
    2250:	006a9793          	slli	a5,s5,0x6
    2254:	83a5                	srli	a5,a5,0x9
    2256:	0ff77713          	andi	a4,a4,255
    225a:	bf8d                	j	21cc <__divsf3+0xb8>
    225c:	e4b9                	bnez	s1,22aa <__divsf3+0x196>
    225e:	4685                	li	a3,1
    2260:	b7a9                	j	21aa <__divsf3+0x96>
    2262:	020a9463          	bnez	s5,228a <__divsf3+0x176>
    2266:	4411                	li	s0,4
    2268:	4a01                	li	s4,0
    226a:	4b05                	li	s6,1
    226c:	bdc5                	j	215c <__divsf3+0x48>
    226e:	000a9963          	bnez	s5,2280 <__divsf3+0x16c>
    2272:	4421                	li	s0,8
    2274:	0ff00a13          	li	s4,255
    2278:	4b09                	li	s6,2
    227a:	b5cd                	j	215c <__divsf3+0x48>
    227c:	468d                	li	a3,3
    227e:	b731                	j	218a <__divsf3+0x76>
    2280:	4431                	li	s0,12
    2282:	0ff00a13          	li	s4,255
    2286:	4b0d                	li	s6,3
    2288:	bdd1                	j	215c <__divsf3+0x48>
    228a:	8556                	mv	a0,s5
    228c:	c62e                	sw	a1,12(sp)
    228e:	473000ef          	jal	ra,2f00 <__clzsi2>
    2292:	ffb50793          	addi	a5,a0,-5
    2296:	00fa9ab3          	sll	s5,s5,a5
    229a:	f8a00793          	li	a5,-118
    229e:	40a78a33          	sub	s4,a5,a0
    22a2:	4401                	li	s0,0
    22a4:	4b01                	li	s6,0
    22a6:	45b2                	lw	a1,12(sp)
    22a8:	bd55                	j	215c <__divsf3+0x48>
    22aa:	8526                	mv	a0,s1
    22ac:	455000ef          	jal	ra,2f00 <__clzsi2>
    22b0:	ffb50713          	addi	a4,a0,-5
    22b4:	00aa07b3          	add	a5,s4,a0
    22b8:	00e494b3          	sll	s1,s1,a4
    22bc:	07678a13          	addi	s4,a5,118 # f8000076 <_eusrstack+0xd7ffd876>
    22c0:	4681                	li	a3,0
    22c2:	b5e1                	j	218a <__divsf3+0x76>
    22c4:	001bf913          	andi	s2,s7,1
    22c8:	4701                	li	a4,0
    22ca:	4781                	li	a5,0
    22cc:	b701                	j	21cc <__divsf3+0xb8>
    22ce:	6641                	lui	a2,0x10
    22d0:	00549513          	slli	a0,s1,0x5
    22d4:	167d                	addi	a2,a2,-1
    22d6:	01055793          	srli	a5,a0,0x10
    22da:	8e69                	and	a2,a2,a0
    22dc:	0a9afa63          	bgeu	s5,s1,2390 <__divsf3+0x27c>
    22e0:	02fad5b3          	divu	a1,s5,a5
    22e4:	1a7d                	addi	s4,s4,-1
    22e6:	86d6                	mv	a3,s5
    22e8:	4701                	li	a4,0
    22ea:	02c58833          	mul	a6,a1,a2
    22ee:	02f6f6b3          	remu	a3,a3,a5
    22f2:	06c2                	slli	a3,a3,0x10
    22f4:	8f55                	or	a4,a4,a3
    22f6:	01077b63          	bgeu	a4,a6,230c <__divsf3+0x1f8>
    22fa:	972a                	add	a4,a4,a0
    22fc:	fff58693          	addi	a3,a1,-1
    2300:	0aa76863          	bltu	a4,a0,23b0 <__divsf3+0x29c>
    2304:	0b077663          	bgeu	a4,a6,23b0 <__divsf3+0x29c>
    2308:	15f9                	addi	a1,a1,-2
    230a:	972a                	add	a4,a4,a0
    230c:	41070733          	sub	a4,a4,a6
    2310:	02f756b3          	divu	a3,a4,a5
    2314:	02f77733          	remu	a4,a4,a5
    2318:	02c68ab3          	mul	s5,a3,a2
    231c:	01071793          	slli	a5,a4,0x10
    2320:	0157fb63          	bgeu	a5,s5,2336 <__divsf3+0x222>
    2324:	97aa                	add	a5,a5,a0
    2326:	fff68713          	addi	a4,a3,-1 # 7dffffff <_eusrstack+0x5dffd7ff>
    232a:	08a7e163          	bltu	a5,a0,23ac <__divsf3+0x298>
    232e:	0757ff63          	bgeu	a5,s5,23ac <__divsf3+0x298>
    2332:	16f9                	addi	a3,a3,-2
    2334:	97aa                	add	a5,a5,a0
    2336:	05c2                	slli	a1,a1,0x10
    2338:	41578ab3          	sub	s5,a5,s5
    233c:	8dd5                	or	a1,a1,a3
    233e:	01503ab3          	snez	s5,s5
    2342:	0155eab3          	or	s5,a1,s5
    2346:	8bca                	mv	s7,s2
    2348:	b5f1                	j	2214 <__divsf3+0x100>
    234a:	4685                	li	a3,1
    234c:	8e99                	sub	a3,a3,a4
    234e:	c711                	beqz	a4,235a <__divsf3+0x246>
    2350:	466d                	li	a2,27
    2352:	4701                	li	a4,0
    2354:	4781                	li	a5,0
    2356:	e6d64be3          	blt	a2,a3,21cc <__divsf3+0xb8>
    235a:	09ea0a13          	addi	s4,s4,158
    235e:	014a9a33          	sll	s4,s5,s4
    2362:	00dad7b3          	srl	a5,s5,a3
    2366:	01403ab3          	snez	s5,s4
    236a:	0157e7b3          	or	a5,a5,s5
    236e:	0077f713          	andi	a4,a5,7
    2372:	c719                	beqz	a4,2380 <__divsf3+0x26c>
    2374:	00f7f713          	andi	a4,a5,15
    2378:	4691                	li	a3,4
    237a:	00d70363          	beq	a4,a3,2380 <__divsf3+0x26c>
    237e:	0791                	addi	a5,a5,4
    2380:	00579713          	slli	a4,a5,0x5
    2384:	02074863          	bltz	a4,23b4 <__divsf3+0x2a0>
    2388:	079a                	slli	a5,a5,0x6
    238a:	83a5                	srli	a5,a5,0x9
    238c:	4701                	li	a4,0
    238e:	bd3d                	j	21cc <__divsf3+0xb8>
    2390:	001ad693          	srli	a3,s5,0x1
    2394:	02f6d5b3          	divu	a1,a3,a5
    2398:	01fa9713          	slli	a4,s5,0x1f
    239c:	8341                	srli	a4,a4,0x10
    239e:	02c58833          	mul	a6,a1,a2
    23a2:	b7b1                	j	22ee <__divsf3+0x1da>
    23a4:	8bce                	mv	s7,s3
    23a6:	8b36                	mv	s6,a3
    23a8:	4a81                	li	s5,0
    23aa:	bda1                	j	2202 <__divsf3+0xee>
    23ac:	86ba                	mv	a3,a4
    23ae:	b761                	j	2336 <__divsf3+0x222>
    23b0:	85b6                	mv	a1,a3
    23b2:	bfa9                	j	230c <__divsf3+0x1f8>
    23b4:	4705                	li	a4,1
    23b6:	4781                	li	a5,0
    23b8:	bd11                	j	21cc <__divsf3+0xb8>
    23ba:	001bf913          	andi	s2,s7,1
    23be:	0ff00713          	li	a4,255
    23c2:	4781                	li	a5,0
    23c4:	b521                	j	21cc <__divsf3+0xb8>

000023c6 <__gesf2>:
    23c6:	01755693          	srli	a3,a0,0x17
    23ca:	008007b7          	lui	a5,0x800
    23ce:	17fd                	addi	a5,a5,-1
    23d0:	0175d613          	srli	a2,a1,0x17
    23d4:	0ff6f693          	andi	a3,a3,255
    23d8:	0ff00813          	li	a6,255
    23dc:	00a7f8b3          	and	a7,a5,a0
    23e0:	01f55713          	srli	a4,a0,0x1f
    23e4:	8fed                	and	a5,a5,a1
    23e6:	0ff67613          	andi	a2,a2,255
    23ea:	81fd                	srli	a1,a1,0x1f
    23ec:	03068163          	beq	a3,a6,240e <__gesf2+0x48>
    23f0:	01060c63          	beq	a2,a6,2408 <__gesf2+0x42>
    23f4:	e28d                	bnez	a3,2416 <__gesf2+0x50>
    23f6:	e211                	bnez	a2,23fa <__gesf2+0x34>
    23f8:	c3b1                	beqz	a5,243c <__gesf2+0x76>
    23fa:	02088e63          	beqz	a7,2436 <__gesf2+0x70>
    23fe:	04b70563          	beq	a4,a1,2448 <__gesf2+0x82>
    2402:	4505                	li	a0,1
    2404:	e71d                	bnez	a4,2432 <__gesf2+0x6c>
    2406:	8082                	ret
    2408:	d7f5                	beqz	a5,23f4 <__gesf2+0x2e>
    240a:	5579                	li	a0,-2
    240c:	8082                	ret
    240e:	fe089ee3          	bnez	a7,240a <__gesf2+0x44>
    2412:	02d60963          	beq	a2,a3,2444 <__gesf2+0x7e>
    2416:	e211                	bnez	a2,241a <__gesf2+0x54>
    2418:	d7ed                	beqz	a5,2402 <__gesf2+0x3c>
    241a:	feb714e3          	bne	a4,a1,2402 <__gesf2+0x3c>
    241e:	fed642e3          	blt	a2,a3,2402 <__gesf2+0x3c>
    2422:	00c6c763          	blt	a3,a2,2430 <__gesf2+0x6a>
    2426:	fd17eee3          	bltu	a5,a7,2402 <__gesf2+0x3c>
    242a:	4501                	li	a0,0
    242c:	fcf8fde3          	bgeu	a7,a5,2406 <__gesf2+0x40>
    2430:	e701                	bnez	a4,2438 <__gesf2+0x72>
    2432:	557d                	li	a0,-1
    2434:	8082                	ret
    2436:	ddf5                	beqz	a1,2432 <__gesf2+0x6c>
    2438:	4505                	li	a0,1
    243a:	8082                	ret
    243c:	4501                	li	a0,0
    243e:	fc0892e3          	bnez	a7,2402 <__gesf2+0x3c>
    2442:	8082                	ret
    2444:	dbf9                	beqz	a5,241a <__gesf2+0x54>
    2446:	b7d1                	j	240a <__gesf2+0x44>
    2448:	4681                	li	a3,0
    244a:	bfe1                	j	2422 <__gesf2+0x5c>

0000244c <__lesf2>:
    244c:	01755693          	srli	a3,a0,0x17
    2450:	008007b7          	lui	a5,0x800
    2454:	17fd                	addi	a5,a5,-1
    2456:	0175d613          	srli	a2,a1,0x17
    245a:	0ff6f693          	andi	a3,a3,255
    245e:	0ff00813          	li	a6,255
    2462:	00a7f8b3          	and	a7,a5,a0
    2466:	01f55713          	srli	a4,a0,0x1f
    246a:	8fed                	and	a5,a5,a1
    246c:	0ff67613          	andi	a2,a2,255
    2470:	81fd                	srli	a1,a1,0x1f
    2472:	03068763          	beq	a3,a6,24a0 <__lesf2+0x54>
    2476:	01060963          	beq	a2,a6,2488 <__lesf2+0x3c>
    247a:	ea85                	bnez	a3,24aa <__lesf2+0x5e>
    247c:	ea11                	bnez	a2,2490 <__lesf2+0x44>
    247e:	eb89                	bnez	a5,2490 <__lesf2+0x44>
    2480:	4501                	li	a0,0
    2482:	00089b63          	bnez	a7,2498 <__lesf2+0x4c>
    2486:	8082                	ret
    2488:	4509                	li	a0,2
    248a:	fff5                	bnez	a5,2486 <__lesf2+0x3a>
    248c:	dae5                	beqz	a3,247c <__lesf2+0x30>
    248e:	a831                	j	24aa <__lesf2+0x5e>
    2490:	02088c63          	beqz	a7,24c8 <__lesf2+0x7c>
    2494:	04b70063          	beq	a4,a1,24d4 <__lesf2+0x88>
    2498:	4505                	li	a0,1
    249a:	d775                	beqz	a4,2486 <__lesf2+0x3a>
    249c:	557d                	li	a0,-1
    249e:	8082                	ret
    24a0:	4509                	li	a0,2
    24a2:	02089863          	bnez	a7,24d2 <__lesf2+0x86>
    24a6:	02d60463          	beq	a2,a3,24ce <__lesf2+0x82>
    24aa:	e211                	bnez	a2,24ae <__lesf2+0x62>
    24ac:	d7f5                	beqz	a5,2498 <__lesf2+0x4c>
    24ae:	feb715e3          	bne	a4,a1,2498 <__lesf2+0x4c>
    24b2:	fed643e3          	blt	a2,a3,2498 <__lesf2+0x4c>
    24b6:	00c6c763          	blt	a3,a2,24c4 <__lesf2+0x78>
    24ba:	fd17efe3          	bltu	a5,a7,2498 <__lesf2+0x4c>
    24be:	4501                	li	a0,0
    24c0:	fcf8f3e3          	bgeu	a7,a5,2486 <__lesf2+0x3a>
    24c4:	e319                	bnez	a4,24ca <__lesf2+0x7e>
    24c6:	bfd9                	j	249c <__lesf2+0x50>
    24c8:	d9f1                	beqz	a1,249c <__lesf2+0x50>
    24ca:	4505                	li	a0,1
    24cc:	8082                	ret
    24ce:	d3e5                	beqz	a5,24ae <__lesf2+0x62>
    24d0:	8082                	ret
    24d2:	8082                	ret
    24d4:	4681                	li	a3,0
    24d6:	b7c5                	j	24b6 <__lesf2+0x6a>

000024d8 <__mulsf3>:
    24d8:	7179                	addi	sp,sp,-48
    24da:	d422                	sw	s0,40(sp)
    24dc:	01755413          	srli	s0,a0,0x17
    24e0:	ce4e                	sw	s3,28(sp)
    24e2:	cc52                	sw	s4,24(sp)
    24e4:	00951993          	slli	s3,a0,0x9
    24e8:	d606                	sw	ra,44(sp)
    24ea:	d226                	sw	s1,36(sp)
    24ec:	d04a                	sw	s2,32(sp)
    24ee:	ca56                	sw	s5,20(sp)
    24f0:	c85a                	sw	s6,16(sp)
    24f2:	0ff47413          	andi	s0,s0,255
    24f6:	0099d993          	srli	s3,s3,0x9
    24fa:	01f55a13          	srli	s4,a0,0x1f
    24fe:	c469                	beqz	s0,25c8 <__mulsf3+0xf0>
    2500:	0ff00793          	li	a5,255
    2504:	0ef40863          	beq	s0,a5,25f4 <__mulsf3+0x11c>
    2508:	00399793          	slli	a5,s3,0x3
    250c:	04000737          	lui	a4,0x4000
    2510:	00e7e9b3          	or	s3,a5,a4
    2514:	f8140413          	addi	s0,s0,-127 # 3ffff81 <_data_lma+0x3ffb299>
    2518:	4481                	li	s1,0
    251a:	4b01                	li	s6,0
    251c:	0175d713          	srli	a4,a1,0x17
    2520:	00959a93          	slli	s5,a1,0x9
    2524:	0ff77713          	andi	a4,a4,255
    2528:	009ada93          	srli	s5,s5,0x9
    252c:	01f5d913          	srli	s2,a1,0x1f
    2530:	cf45                	beqz	a4,25e8 <__mulsf3+0x110>
    2532:	0ff00793          	li	a5,255
    2536:	02f70c63          	beq	a4,a5,256e <__mulsf3+0x96>
    253a:	0a8e                	slli	s5,s5,0x3
    253c:	f8170713          	addi	a4,a4,-127 # 3ffff81 <_data_lma+0x3ffb299>
    2540:	040007b7          	lui	a5,0x4000
    2544:	00faeab3          	or	s5,s5,a5
    2548:	943a                	add	s0,s0,a4
    254a:	4601                	li	a2,0
    254c:	012a4533          	xor	a0,s4,s2
    2550:	47bd                	li	a5,15
    2552:	86aa                	mv	a3,a0
    2554:	00140593          	addi	a1,s0,1
    2558:	1097e263          	bltu	a5,s1,265c <__mulsf3+0x184>
    255c:	00002717          	auipc	a4,0x2
    2560:	61070713          	addi	a4,a4,1552 # 4b6c <font_8x8+0x43c>
    2564:	048a                	slli	s1,s1,0x2
    2566:	94ba                	add	s1,s1,a4
    2568:	409c                	lw	a5,0(s1)
    256a:	97ba                	add	a5,a5,a4
    256c:	8782                	jr	a5
    256e:	0ff40413          	addi	s0,s0,255
    2572:	0c0a9863          	bnez	s5,2642 <__mulsf3+0x16a>
    2576:	0024e493          	ori	s1,s1,2
    257a:	4609                	li	a2,2
    257c:	bfc1                	j	254c <__mulsf3+0x74>
    257e:	4501                	li	a0,0
    2580:	0ff00713          	li	a4,255
    2584:	004007b7          	lui	a5,0x400
    2588:	50b2                	lw	ra,44(sp)
    258a:	5422                	lw	s0,40(sp)
    258c:	07a6                	slli	a5,a5,0x9
    258e:	075e                	slli	a4,a4,0x17
    2590:	83a5                	srli	a5,a5,0x9
    2592:	057e                	slli	a0,a0,0x1f
    2594:	8fd9                	or	a5,a5,a4
    2596:	5492                	lw	s1,36(sp)
    2598:	5902                	lw	s2,32(sp)
    259a:	49f2                	lw	s3,28(sp)
    259c:	4a62                	lw	s4,24(sp)
    259e:	4ad2                	lw	s5,20(sp)
    25a0:	4b42                	lw	s6,16(sp)
    25a2:	8d5d                	or	a0,a0,a5
    25a4:	6145                	addi	sp,sp,48
    25a6:	8082                	ret
    25a8:	86ca                	mv	a3,s2
    25aa:	89d6                	mv	s3,s5
    25ac:	8b32                	mv	s6,a2
    25ae:	4789                	li	a5,2
    25b0:	0afb0163          	beq	s6,a5,2652 <__mulsf3+0x17a>
    25b4:	478d                	li	a5,3
    25b6:	fcfb04e3          	beq	s6,a5,257e <__mulsf3+0xa6>
    25ba:	4785                	li	a5,1
    25bc:	8536                	mv	a0,a3
    25be:	1afb1263          	bne	s6,a5,2762 <__mulsf3+0x28a>
    25c2:	4701                	li	a4,0
    25c4:	4781                	li	a5,0
    25c6:	b7c9                	j	2588 <__mulsf3+0xb0>
    25c8:	04099e63          	bnez	s3,2624 <__mulsf3+0x14c>
    25cc:	0175d713          	srli	a4,a1,0x17
    25d0:	00959a93          	slli	s5,a1,0x9
    25d4:	0ff77713          	andi	a4,a4,255
    25d8:	4491                	li	s1,4
    25da:	4401                	li	s0,0
    25dc:	4b05                	li	s6,1
    25de:	009ada93          	srli	s5,s5,0x9
    25e2:	01f5d913          	srli	s2,a1,0x1f
    25e6:	f731                	bnez	a4,2532 <__mulsf3+0x5a>
    25e8:	000a9d63          	bnez	s5,2602 <__mulsf3+0x12a>
    25ec:	0014e493          	ori	s1,s1,1
    25f0:	4605                	li	a2,1
    25f2:	bfa9                	j	254c <__mulsf3+0x74>
    25f4:	02099363          	bnez	s3,261a <__mulsf3+0x142>
    25f8:	44a1                	li	s1,8
    25fa:	0ff00413          	li	s0,255
    25fe:	4b09                	li	s6,2
    2600:	bf31                	j	251c <__mulsf3+0x44>
    2602:	8556                	mv	a0,s5
    2604:	0fd000ef          	jal	ra,2f00 <__clzsi2>
    2608:	ffb50793          	addi	a5,a0,-5
    260c:	8c09                	sub	s0,s0,a0
    260e:	00fa9ab3          	sll	s5,s5,a5
    2612:	f8a40413          	addi	s0,s0,-118
    2616:	4601                	li	a2,0
    2618:	bf15                	j	254c <__mulsf3+0x74>
    261a:	44b1                	li	s1,12
    261c:	0ff00413          	li	s0,255
    2620:	4b0d                	li	s6,3
    2622:	bded                	j	251c <__mulsf3+0x44>
    2624:	854e                	mv	a0,s3
    2626:	c62e                	sw	a1,12(sp)
    2628:	0d9000ef          	jal	ra,2f00 <__clzsi2>
    262c:	ffb50793          	addi	a5,a0,-5
    2630:	f8a00413          	li	s0,-118
    2634:	00f999b3          	sll	s3,s3,a5
    2638:	8c09                	sub	s0,s0,a0
    263a:	4481                	li	s1,0
    263c:	4b01                	li	s6,0
    263e:	45b2                	lw	a1,12(sp)
    2640:	bdf1                	j	251c <__mulsf3+0x44>
    2642:	0034e493          	ori	s1,s1,3
    2646:	460d                	li	a2,3
    2648:	b711                	j	254c <__mulsf3+0x74>
    264a:	4789                	li	a5,2
    264c:	86d2                	mv	a3,s4
    264e:	f6fb13e3          	bne	s6,a5,25b4 <__mulsf3+0xdc>
    2652:	8536                	mv	a0,a3
    2654:	0ff00713          	li	a4,255
    2658:	4781                	li	a5,0
    265a:	b73d                	j	2588 <__mulsf3+0xb0>
    265c:	6341                	lui	t1,0x10
    265e:	fff30693          	addi	a3,t1,-1 # ffff <_data_lma+0xb317>
    2662:	0109d613          	srli	a2,s3,0x10
    2666:	010ad893          	srli	a7,s5,0x10
    266a:	00d9f7b3          	and	a5,s3,a3
    266e:	00dafab3          	and	s5,s5,a3
    2672:	03578833          	mul	a6,a5,s5
    2676:	02f889b3          	mul	s3,a7,a5
    267a:	01085713          	srli	a4,a6,0x10
    267e:	03560ab3          	mul	s5,a2,s5
    2682:	99d6                	add	s3,s3,s5
    2684:	974e                	add	a4,a4,s3
    2686:	03160633          	mul	a2,a2,a7
    268a:	01577363          	bgeu	a4,s5,2690 <__mulsf3+0x1b8>
    268e:	961a                	add	a2,a2,t1
    2690:	67c1                	lui	a5,0x10
    2692:	17fd                	addi	a5,a5,-1
    2694:	00f776b3          	and	a3,a4,a5
    2698:	00f87833          	and	a6,a6,a5
    269c:	06c2                	slli	a3,a3,0x10
    269e:	96c2                	add	a3,a3,a6
    26a0:	00669993          	slli	s3,a3,0x6
    26a4:	01075793          	srli	a5,a4,0x10
    26a8:	013039b3          	snez	s3,s3
    26ac:	82e9                	srli	a3,a3,0x1a
    26ae:	97b2                	add	a5,a5,a2
    26b0:	079a                	slli	a5,a5,0x6
    26b2:	00d9e6b3          	or	a3,s3,a3
    26b6:	00d7e9b3          	or	s3,a5,a3
    26ba:	00499793          	slli	a5,s3,0x4
    26be:	0007d963          	bgez	a5,26d0 <__mulsf3+0x1f8>
    26c2:	0019d713          	srli	a4,s3,0x1
    26c6:	0019f793          	andi	a5,s3,1
    26ca:	00f769b3          	or	s3,a4,a5
    26ce:	842e                	mv	s0,a1
    26d0:	07f40713          	addi	a4,s0,127
    26d4:	04e05063          	blez	a4,2714 <__mulsf3+0x23c>
    26d8:	0079f793          	andi	a5,s3,7
    26dc:	c799                	beqz	a5,26ea <__mulsf3+0x212>
    26de:	00f9f793          	andi	a5,s3,15
    26e2:	4691                	li	a3,4
    26e4:	00d78363          	beq	a5,a3,26ea <__mulsf3+0x212>
    26e8:	0991                	addi	s3,s3,4
    26ea:	00499793          	slli	a5,s3,0x4
    26ee:	0007d963          	bgez	a5,2700 <__mulsf3+0x228>
    26f2:	f80007b7          	lui	a5,0xf8000
    26f6:	17fd                	addi	a5,a5,-1
    26f8:	00f9f9b3          	and	s3,s3,a5
    26fc:	08040713          	addi	a4,s0,128
    2700:	0fe00793          	li	a5,254
    2704:	04e7cb63          	blt	a5,a4,275a <__mulsf3+0x282>
    2708:	00699793          	slli	a5,s3,0x6
    270c:	83a5                	srli	a5,a5,0x9
    270e:	0ff77713          	andi	a4,a4,255
    2712:	bd9d                	j	2588 <__mulsf3+0xb0>
    2714:	4785                	li	a5,1
    2716:	40e786b3          	sub	a3,a5,a4
    271a:	c711                	beqz	a4,2726 <__mulsf3+0x24e>
    271c:	466d                	li	a2,27
    271e:	4701                	li	a4,0
    2720:	4781                	li	a5,0
    2722:	e6d643e3          	blt	a2,a3,2588 <__mulsf3+0xb0>
    2726:	09e40713          	addi	a4,s0,158
    272a:	00e99733          	sll	a4,s3,a4
    272e:	00e03733          	snez	a4,a4
    2732:	00d9d7b3          	srl	a5,s3,a3
    2736:	8fd9                	or	a5,a5,a4
    2738:	0077f713          	andi	a4,a5,7
    273c:	c719                	beqz	a4,274a <__mulsf3+0x272>
    273e:	00f7f713          	andi	a4,a5,15
    2742:	4691                	li	a3,4
    2744:	00d70363          	beq	a4,a3,274a <__mulsf3+0x272>
    2748:	0791                	addi	a5,a5,4
    274a:	00579713          	slli	a4,a5,0x5
    274e:	00074c63          	bltz	a4,2766 <__mulsf3+0x28e>
    2752:	079a                	slli	a5,a5,0x6
    2754:	83a5                	srli	a5,a5,0x9
    2756:	4701                	li	a4,0
    2758:	bd05                	j	2588 <__mulsf3+0xb0>
    275a:	0ff00713          	li	a4,255
    275e:	4781                	li	a5,0
    2760:	b525                	j	2588 <__mulsf3+0xb0>
    2762:	842e                	mv	s0,a1
    2764:	b7b5                	j	26d0 <__mulsf3+0x1f8>
    2766:	4705                	li	a4,1
    2768:	4781                	li	a5,0
    276a:	bd39                	j	2588 <__mulsf3+0xb0>

0000276c <__subsf3>:
    276c:	00800737          	lui	a4,0x800
    2770:	1141                	addi	sp,sp,-16
    2772:	177d                	addi	a4,a4,-1
    2774:	01755693          	srli	a3,a0,0x17
    2778:	0175d813          	srli	a6,a1,0x17
    277c:	00a777b3          	and	a5,a4,a0
    2780:	0ff6f693          	andi	a3,a3,255
    2784:	01f55e93          	srli	t4,a0,0x1f
    2788:	00b77633          	and	a2,a4,a1
    278c:	c226                	sw	s1,4(sp)
    278e:	c04a                	sw	s2,0(sp)
    2790:	0ff87813          	andi	a6,a6,255
    2794:	c606                	sw	ra,12(sp)
    2796:	c422                	sw	s0,8(sp)
    2798:	0ff00313          	li	t1,255
    279c:	8e3e                	mv	t3,a5
    279e:	8936                	mv	s2,a3
    27a0:	84f6                	mv	s1,t4
    27a2:	00379f13          	slli	t5,a5,0x3
    27a6:	81fd                	srli	a1,a1,0x1f
    27a8:	00361513          	slli	a0,a2,0x3
    27ac:	410688b3          	sub	a7,a3,a6
    27b0:	10680263          	beq	a6,t1,28b4 <__subsf3+0x148>
    27b4:	0015c593          	xori	a1,a1,1
    27b8:	10be8c63          	beq	t4,a1,28d0 <__subsf3+0x164>
    27bc:	0d105463          	blez	a7,2884 <__subsf3+0x118>
    27c0:	10081063          	bnez	a6,28c0 <__subsf3+0x154>
    27c4:	1e050463          	beqz	a0,29ac <__subsf3+0x240>
    27c8:	18fd                	addi	a7,a7,-1
    27ca:	40af07b3          	sub	a5,t5,a0
    27ce:	02088663          	beqz	a7,27fa <__subsf3+0x8e>
    27d2:	0ff00793          	li	a5,255
    27d6:	16f68863          	beq	a3,a5,2946 <__subsf3+0x1da>
    27da:	47ed                	li	a5,27
    27dc:	2917c763          	blt	a5,a7,2a6a <__subsf3+0x2fe>
    27e0:	02000713          	li	a4,32
    27e4:	41170733          	sub	a4,a4,a7
    27e8:	00e51733          	sll	a4,a0,a4
    27ec:	011557b3          	srl	a5,a0,a7
    27f0:	00e03733          	snez	a4,a4
    27f4:	8fd9                	or	a5,a5,a4
    27f6:	40ff07b3          	sub	a5,t5,a5
    27fa:	00579713          	slli	a4,a5,0x5
    27fe:	1a075163          	bgez	a4,29a0 <__subsf3+0x234>
    2802:	04000437          	lui	s0,0x4000
    2806:	147d                	addi	s0,s0,-1
    2808:	8c7d                	and	s0,s0,a5
    280a:	8522                	mv	a0,s0
    280c:	2dd5                	jal	2f00 <__clzsi2>
    280e:	156d                	addi	a0,a0,-5
    2810:	00a417b3          	sll	a5,s0,a0
    2814:	1b254e63          	blt	a0,s2,29d0 <__subsf3+0x264>
    2818:	41250533          	sub	a0,a0,s2
    281c:	00150413          	addi	s0,a0,1
    2820:	02000713          	li	a4,32
    2824:	8f01                	sub	a4,a4,s0
    2826:	00e79733          	sll	a4,a5,a4
    282a:	00e03733          	snez	a4,a4
    282e:	0087d7b3          	srl	a5,a5,s0
    2832:	8fd9                	or	a5,a5,a4
    2834:	4901                	li	s2,0
    2836:	0077f713          	andi	a4,a5,7
    283a:	c719                	beqz	a4,2848 <__subsf3+0xdc>
    283c:	00f7f713          	andi	a4,a5,15
    2840:	4691                	li	a3,4
    2842:	00d70363          	beq	a4,a3,2848 <__subsf3+0xdc>
    2846:	0791                	addi	a5,a5,4
    2848:	00579713          	slli	a4,a5,0x5
    284c:	14075e63          	bgez	a4,29a8 <__subsf3+0x23c>
    2850:	00190693          	addi	a3,s2,1 # 800001 <_data_lma+0x7fb319>
    2854:	0ff00713          	li	a4,255
    2858:	0014fe93          	andi	t4,s1,1
    285c:	16e68663          	beq	a3,a4,29c8 <__subsf3+0x25c>
    2860:	079a                	slli	a5,a5,0x6
    2862:	83a5                	srli	a5,a5,0x9
    2864:	0ff6f693          	andi	a3,a3,255
    2868:	07a6                	slli	a5,a5,0x9
    286a:	40b2                	lw	ra,12(sp)
    286c:	4422                	lw	s0,8(sp)
    286e:	0097d513          	srli	a0,a5,0x9
    2872:	06de                	slli	a3,a3,0x17
    2874:	01fe9793          	slli	a5,t4,0x1f
    2878:	8d55                	or	a0,a0,a3
    287a:	4492                	lw	s1,4(sp)
    287c:	4902                	lw	s2,0(sp)
    287e:	8d5d                	or	a0,a0,a5
    2880:	0141                	addi	sp,sp,16
    2882:	8082                	ret
    2884:	0a089263          	bnez	a7,2928 <__subsf3+0x1bc>
    2888:	00168713          	addi	a4,a3,1
    288c:	0fe77713          	andi	a4,a4,254
    2890:	14071b63          	bnez	a4,29e6 <__subsf3+0x27a>
    2894:	22069463          	bnez	a3,2abc <__subsf3+0x350>
    2898:	200f0263          	beqz	t5,2a9c <__subsf3+0x330>
    289c:	d571                	beqz	a0,2868 <__subsf3+0xfc>
    289e:	40af07b3          	sub	a5,t5,a0
    28a2:	00579713          	slli	a4,a5,0x5
    28a6:	22075563          	bgez	a4,2ad0 <__subsf3+0x364>
    28aa:	41e507b3          	sub	a5,a0,t5
    28ae:	4901                	li	s2,0
    28b0:	84ae                	mv	s1,a1
    28b2:	b751                	j	2836 <__subsf3+0xca>
    28b4:	f00500e3          	beqz	a0,27b4 <__subsf3+0x48>
    28b8:	0abe8a63          	beq	t4,a1,296c <__subsf3+0x200>
    28bc:	fd1054e3          	blez	a7,2884 <__subsf3+0x118>
    28c0:	0ff00793          	li	a5,255
    28c4:	08f68163          	beq	a3,a5,2946 <__subsf3+0x1da>
    28c8:	040007b7          	lui	a5,0x4000
    28cc:	8d5d                	or	a0,a0,a5
    28ce:	b731                	j	27da <__subsf3+0x6e>
    28d0:	09105e63          	blez	a7,296c <__subsf3+0x200>
    28d4:	08080163          	beqz	a6,2956 <__subsf3+0x1ea>
    28d8:	0ff00793          	li	a5,255
    28dc:	06f68563          	beq	a3,a5,2946 <__subsf3+0x1da>
    28e0:	040007b7          	lui	a5,0x4000
    28e4:	8d5d                	or	a0,a0,a5
    28e6:	47ed                	li	a5,27
    28e8:	1f17c063          	blt	a5,a7,2ac8 <__subsf3+0x35c>
    28ec:	02000713          	li	a4,32
    28f0:	41170733          	sub	a4,a4,a7
    28f4:	00e51733          	sll	a4,a0,a4
    28f8:	011557b3          	srl	a5,a0,a7
    28fc:	00e03733          	snez	a4,a4
    2900:	8fd9                	or	a5,a5,a4
    2902:	97fa                	add	a5,a5,t5
    2904:	00579713          	slli	a4,a5,0x5
    2908:	08075c63          	bgez	a4,29a0 <__subsf3+0x234>
    290c:	0905                	addi	s2,s2,1
    290e:	0ff00713          	li	a4,255
    2912:	0ae90b63          	beq	s2,a4,29c8 <__subsf3+0x25c>
    2916:	7e0006b7          	lui	a3,0x7e000
    291a:	0017d713          	srli	a4,a5,0x1
    291e:	16fd                	addi	a3,a3,-1
    2920:	8b85                	andi	a5,a5,1
    2922:	8f75                	and	a4,a4,a3
    2924:	8fd9                	or	a5,a5,a4
    2926:	bf01                	j	2836 <__subsf3+0xca>
    2928:	40d80733          	sub	a4,a6,a3
    292c:	10069563          	bnez	a3,2a36 <__subsf3+0x2ca>
    2930:	140f0d63          	beqz	t5,2a8a <__subsf3+0x31e>
    2934:	177d                	addi	a4,a4,-1
    2936:	1a070363          	beqz	a4,2adc <__subsf3+0x370>
    293a:	0ff00793          	li	a5,255
    293e:	10f81463          	bne	a6,a5,2a46 <__subsf3+0x2da>
    2942:	84ae                	mv	s1,a1
    2944:	8e32                	mv	t3,a2
    2946:	060e0f63          	beqz	t3,29c4 <__subsf3+0x258>
    294a:	4e81                	li	t4,0
    294c:	0ff00693          	li	a3,255
    2950:	004007b7          	lui	a5,0x400
    2954:	bf11                	j	2868 <__subsf3+0xfc>
    2956:	c939                	beqz	a0,29ac <__subsf3+0x240>
    2958:	18fd                	addi	a7,a7,-1
    295a:	00af07b3          	add	a5,t5,a0
    295e:	fa0883e3          	beqz	a7,2904 <__subsf3+0x198>
    2962:	0ff00793          	li	a5,255
    2966:	f8f690e3          	bne	a3,a5,28e6 <__subsf3+0x17a>
    296a:	bff1                	j	2946 <__subsf3+0x1da>
    296c:	08089963          	bnez	a7,29fe <__subsf3+0x292>
    2970:	00168913          	addi	s2,a3,1 # 7e000001 <_eusrstack+0x5dffd801>
    2974:	0fe97713          	andi	a4,s2,254
    2978:	12071663          	bnez	a4,2aa4 <__subsf3+0x338>
    297c:	10069b63          	bnez	a3,2a92 <__subsf3+0x326>
    2980:	160f0363          	beqz	t5,2ae6 <__subsf3+0x37a>
    2984:	ee0502e3          	beqz	a0,2868 <__subsf3+0xfc>
    2988:	00af07b3          	add	a5,t5,a0
    298c:	00579713          	slli	a4,a5,0x5
    2990:	4901                	li	s2,0
    2992:	00075763          	bgez	a4,29a0 <__subsf3+0x234>
    2996:	fc000737          	lui	a4,0xfc000
    299a:	177d                	addi	a4,a4,-1
    299c:	8ff9                	and	a5,a5,a4
    299e:	4905                	li	s2,1
    29a0:	0077f713          	andi	a4,a5,7
    29a4:	e8071ce3          	bnez	a4,283c <__subsf3+0xd0>
    29a8:	0037de13          	srli	t3,a5,0x3
    29ac:	0ff00793          	li	a5,255
    29b0:	f8f90be3          	beq	s2,a5,2946 <__subsf3+0x1da>
    29b4:	009e1793          	slli	a5,t3,0x9
    29b8:	83a5                	srli	a5,a5,0x9
    29ba:	0ff97693          	andi	a3,s2,255
    29be:	0014fe93          	andi	t4,s1,1
    29c2:	b55d                	j	2868 <__subsf3+0xfc>
    29c4:	0014fe93          	andi	t4,s1,1
    29c8:	0ff00693          	li	a3,255
    29cc:	4781                	li	a5,0
    29ce:	bd69                	j	2868 <__subsf3+0xfc>
    29d0:	fc000737          	lui	a4,0xfc000
    29d4:	177d                	addi	a4,a4,-1
    29d6:	8ff9                	and	a5,a5,a4
    29d8:	0077f713          	andi	a4,a5,7
    29dc:	40a90933          	sub	s2,s2,a0
    29e0:	e4071ee3          	bnez	a4,283c <__subsf3+0xd0>
    29e4:	b7d1                	j	29a8 <__subsf3+0x23c>
    29e6:	40af0433          	sub	s0,t5,a0
    29ea:	00541793          	slli	a5,s0,0x5
    29ee:	0c07c363          	bltz	a5,2ab4 <__subsf3+0x348>
    29f2:	e0041ce3          	bnez	s0,280a <__subsf3+0x9e>
    29f6:	4e81                	li	t4,0
    29f8:	4681                	li	a3,0
    29fa:	4781                	li	a5,0
    29fc:	b5b5                	j	2868 <__subsf3+0xfc>
    29fe:	40d80733          	sub	a4,a6,a3
    2a02:	c6b5                	beqz	a3,2a6e <__subsf3+0x302>
    2a04:	0ff00793          	li	a5,255
    2a08:	f2f80ee3          	beq	a6,a5,2944 <__subsf3+0x1d8>
    2a0c:	040007b7          	lui	a5,0x4000
    2a10:	00ff6f33          	or	t5,t5,a5
    2a14:	47ed                	li	a5,27
    2a16:	0ce7cd63          	blt	a5,a4,2af0 <__subsf3+0x384>
    2a1a:	02000793          	li	a5,32
    2a1e:	8f99                	sub	a5,a5,a4
    2a20:	00ff17b3          	sll	a5,t5,a5
    2a24:	00ef5733          	srl	a4,t5,a4
    2a28:	00f037b3          	snez	a5,a5
    2a2c:	8f5d                	or	a4,a4,a5
    2a2e:	00a707b3          	add	a5,a4,a0
    2a32:	8942                	mv	s2,a6
    2a34:	bdc1                	j	2904 <__subsf3+0x198>
    2a36:	0ff00793          	li	a5,255
    2a3a:	f0f804e3          	beq	a6,a5,2942 <__subsf3+0x1d6>
    2a3e:	040007b7          	lui	a5,0x4000
    2a42:	00ff6f33          	or	t5,t5,a5
    2a46:	47ed                	li	a5,27
    2a48:	08e7c263          	blt	a5,a4,2acc <__subsf3+0x360>
    2a4c:	02000793          	li	a5,32
    2a50:	8f99                	sub	a5,a5,a4
    2a52:	00ff17b3          	sll	a5,t5,a5
    2a56:	00ef5733          	srl	a4,t5,a4
    2a5a:	00f037b3          	snez	a5,a5
    2a5e:	8fd9                	or	a5,a5,a4
    2a60:	40f507b3          	sub	a5,a0,a5
    2a64:	8942                	mv	s2,a6
    2a66:	84ae                	mv	s1,a1
    2a68:	bb49                	j	27fa <__subsf3+0x8e>
    2a6a:	4785                	li	a5,1
    2a6c:	b369                	j	27f6 <__subsf3+0x8a>
    2a6e:	060f0e63          	beqz	t5,2aea <__subsf3+0x37e>
    2a72:	177d                	addi	a4,a4,-1
    2a74:	00af07b3          	add	a5,t5,a0
    2a78:	8942                	mv	s2,a6
    2a7a:	e80705e3          	beqz	a4,2904 <__subsf3+0x198>
    2a7e:	0ff00793          	li	a5,255
    2a82:	f8f819e3          	bne	a6,a5,2a14 <__subsf3+0x2a8>
    2a86:	8e32                	mv	t3,a2
    2a88:	bd7d                	j	2946 <__subsf3+0x1da>
    2a8a:	8e32                	mv	t3,a2
    2a8c:	8942                	mv	s2,a6
    2a8e:	84ae                	mv	s1,a1
    2a90:	bf31                	j	29ac <__subsf3+0x240>
    2a92:	ea0f09e3          	beqz	t5,2944 <__subsf3+0x1d8>
    2a96:	ea0508e3          	beqz	a0,2946 <__subsf3+0x1da>
    2a9a:	bd45                	j	294a <__subsf3+0x1de>
    2a9c:	cd0d                	beqz	a0,2ad6 <__subsf3+0x36a>
    2a9e:	8eae                	mv	t4,a1
    2aa0:	87b2                	mv	a5,a2
    2aa2:	b3d9                	j	2868 <__subsf3+0xfc>
    2aa4:	0ff00793          	li	a5,255
    2aa8:	f2f900e3          	beq	s2,a5,29c8 <__subsf3+0x25c>
    2aac:	00af07b3          	add	a5,t5,a0
    2ab0:	8385                	srli	a5,a5,0x1
    2ab2:	b5fd                	j	29a0 <__subsf3+0x234>
    2ab4:	41e50433          	sub	s0,a0,t5
    2ab8:	84ae                	mv	s1,a1
    2aba:	bb81                	j	280a <__subsf3+0x9e>
    2abc:	fc0f1de3          	bnez	t5,2a96 <__subsf3+0x32a>
    2ac0:	e80505e3          	beqz	a0,294a <__subsf3+0x1de>
    2ac4:	84ae                	mv	s1,a1
    2ac6:	bdbd                	j	2944 <__subsf3+0x1d8>
    2ac8:	4785                	li	a5,1
    2aca:	bd25                	j	2902 <__subsf3+0x196>
    2acc:	4785                	li	a5,1
    2ace:	bf49                	j	2a60 <__subsf3+0x2f4>
    2ad0:	4901                	li	s2,0
    2ad2:	ec0797e3          	bnez	a5,29a0 <__subsf3+0x234>
    2ad6:	4e81                	li	t4,0
    2ad8:	4781                	li	a5,0
    2ada:	b379                	j	2868 <__subsf3+0xfc>
    2adc:	41e507b3          	sub	a5,a0,t5
    2ae0:	8942                	mv	s2,a6
    2ae2:	84ae                	mv	s1,a1
    2ae4:	bb19                	j	27fa <__subsf3+0x8e>
    2ae6:	87b2                	mv	a5,a2
    2ae8:	b341                	j	2868 <__subsf3+0xfc>
    2aea:	8e32                	mv	t3,a2
    2aec:	8942                	mv	s2,a6
    2aee:	bd7d                	j	29ac <__subsf3+0x240>
    2af0:	4705                	li	a4,1
    2af2:	bf35                	j	2a2e <__subsf3+0x2c2>

00002af4 <__fixsfsi>:
    2af4:	00800637          	lui	a2,0x800
    2af8:	01755713          	srli	a4,a0,0x17
    2afc:	fff60793          	addi	a5,a2,-1 # 7fffff <_data_lma+0x7fb317>
    2b00:	0ff77713          	andi	a4,a4,255
    2b04:	07e00593          	li	a1,126
    2b08:	00a7f6b3          	and	a3,a5,a0
    2b0c:	01f55793          	srli	a5,a0,0x1f
    2b10:	00e5fc63          	bgeu	a1,a4,2b28 <__fixsfsi+0x34>
    2b14:	09d00593          	li	a1,157
    2b18:	00e5fa63          	bgeu	a1,a4,2b2c <__fixsfsi+0x38>
    2b1c:	80000537          	lui	a0,0x80000
    2b20:	fff54513          	not	a0,a0
    2b24:	953e                	add	a0,a0,a5
    2b26:	8082                	ret
    2b28:	4501                	li	a0,0
    2b2a:	8082                	ret
    2b2c:	09500593          	li	a1,149
    2b30:	8ed1                	or	a3,a3,a2
    2b32:	00e5cd63          	blt	a1,a4,2b4c <__fixsfsi+0x58>
    2b36:	09600613          	li	a2,150
    2b3a:	40e60733          	sub	a4,a2,a4
    2b3e:	00e6d733          	srl	a4,a3,a4
    2b42:	40e00533          	neg	a0,a4
    2b46:	f3f5                	bnez	a5,2b2a <__fixsfsi+0x36>
    2b48:	853a                	mv	a0,a4
    2b4a:	8082                	ret
    2b4c:	f6a70713          	addi	a4,a4,-150 # fbffff6a <_eusrstack+0xdbffd76a>
    2b50:	00e69733          	sll	a4,a3,a4
    2b54:	b7fd                	j	2b42 <__fixsfsi+0x4e>

00002b56 <__floatsisf>:
    2b56:	1141                	addi	sp,sp,-16
    2b58:	c606                	sw	ra,12(sp)
    2b5a:	c422                	sw	s0,8(sp)
    2b5c:	c226                	sw	s1,4(sp)
    2b5e:	cd0d                	beqz	a0,2b98 <__floatsisf+0x42>
    2b60:	41f55793          	srai	a5,a0,0x1f
    2b64:	00a7c433          	xor	s0,a5,a0
    2b68:	8c1d                	sub	s0,s0,a5
    2b6a:	84aa                	mv	s1,a0
    2b6c:	8522                	mv	a0,s0
    2b6e:	2e49                	jal	2f00 <__clzsi2>
    2b70:	09e00793          	li	a5,158
    2b74:	40a78733          	sub	a4,a5,a0
    2b78:	09600793          	li	a5,150
    2b7c:	80fd                	srli	s1,s1,0x1f
    2b7e:	02e7cc63          	blt	a5,a4,2bb6 <__floatsisf+0x60>
    2b82:	46a1                	li	a3,8
    2b84:	0ff77793          	andi	a5,a4,255
    2b88:	00a6d563          	bge	a3,a0,2b92 <__floatsisf+0x3c>
    2b8c:	1561                	addi	a0,a0,-8
    2b8e:	00a41433          	sll	s0,s0,a0
    2b92:	0426                	slli	s0,s0,0x9
    2b94:	8025                	srli	s0,s0,0x9
    2b96:	a021                	j	2b9e <__floatsisf+0x48>
    2b98:	4481                	li	s1,0
    2b9a:	4781                	li	a5,0
    2b9c:	4401                	li	s0,0
    2b9e:	0426                	slli	s0,s0,0x9
    2ba0:	00945513          	srli	a0,s0,0x9
    2ba4:	40b2                	lw	ra,12(sp)
    2ba6:	4422                	lw	s0,8(sp)
    2ba8:	07de                	slli	a5,a5,0x17
    2baa:	04fe                	slli	s1,s1,0x1f
    2bac:	8d5d                	or	a0,a0,a5
    2bae:	8d45                	or	a0,a0,s1
    2bb0:	4492                	lw	s1,4(sp)
    2bb2:	0141                	addi	sp,sp,16
    2bb4:	8082                	ret
    2bb6:	09900793          	li	a5,153
    2bba:	00e7dd63          	bge	a5,a4,2bd4 <__floatsisf+0x7e>
    2bbe:	01b50793          	addi	a5,a0,27 # 8000001b <_eusrstack+0x5fffd81b>
    2bc2:	4695                	li	a3,5
    2bc4:	00f417b3          	sll	a5,s0,a5
    2bc8:	8e89                	sub	a3,a3,a0
    2bca:	00d45433          	srl	s0,s0,a3
    2bce:	00f037b3          	snez	a5,a5
    2bd2:	8c5d                	or	s0,s0,a5
    2bd4:	4795                	li	a5,5
    2bd6:	00a7d663          	bge	a5,a0,2be2 <__floatsisf+0x8c>
    2bda:	ffb50793          	addi	a5,a0,-5
    2bde:	00f41433          	sll	s0,s0,a5
    2be2:	fc0006b7          	lui	a3,0xfc000
    2be6:	16fd                	addi	a3,a3,-1
    2be8:	00747793          	andi	a5,s0,7
    2bec:	00d47633          	and	a2,s0,a3
    2bf0:	c385                	beqz	a5,2c10 <__floatsisf+0xba>
    2bf2:	00f47793          	andi	a5,s0,15
    2bf6:	4591                	li	a1,4
    2bf8:	00b78c63          	beq	a5,a1,2c10 <__floatsisf+0xba>
    2bfc:	0611                	addi	a2,a2,4
    2bfe:	00561793          	slli	a5,a2,0x5
    2c02:	0007d763          	bgez	a5,2c10 <__floatsisf+0xba>
    2c06:	09f00793          	li	a5,159
    2c0a:	8e75                	and	a2,a2,a3
    2c0c:	40a78733          	sub	a4,a5,a0
    2c10:	00661413          	slli	s0,a2,0x6
    2c14:	8025                	srli	s0,s0,0x9
    2c16:	0ff77793          	andi	a5,a4,255
    2c1a:	b751                	j	2b9e <__floatsisf+0x48>

00002c1c <__floatunsisf>:
    2c1c:	1141                	addi	sp,sp,-16
    2c1e:	c606                	sw	ra,12(sp)
    2c20:	c422                	sw	s0,8(sp)
    2c22:	cd15                	beqz	a0,2c5e <__floatunsisf+0x42>
    2c24:	842a                	mv	s0,a0
    2c26:	2ce9                	jal	2f00 <__clzsi2>
    2c28:	09e00793          	li	a5,158
    2c2c:	40a78733          	sub	a4,a5,a0
    2c30:	09600793          	li	a5,150
    2c34:	04e7c063          	blt	a5,a4,2c74 <__floatunsisf+0x58>
    2c38:	46a1                	li	a3,8
    2c3a:	0ff77793          	andi	a5,a4,255
    2c3e:	00a6d563          	bge	a3,a0,2c48 <__floatunsisf+0x2c>
    2c42:	1561                	addi	a0,a0,-8
    2c44:	00a41433          	sll	s0,s0,a0
    2c48:	0426                	slli	s0,s0,0x9
    2c4a:	8025                	srli	s0,s0,0x9
    2c4c:	0426                	slli	s0,s0,0x9
    2c4e:	00945513          	srli	a0,s0,0x9
    2c52:	40b2                	lw	ra,12(sp)
    2c54:	4422                	lw	s0,8(sp)
    2c56:	07de                	slli	a5,a5,0x17
    2c58:	8d5d                	or	a0,a0,a5
    2c5a:	0141                	addi	sp,sp,16
    2c5c:	8082                	ret
    2c5e:	4401                	li	s0,0
    2c60:	0426                	slli	s0,s0,0x9
    2c62:	00945513          	srli	a0,s0,0x9
    2c66:	40b2                	lw	ra,12(sp)
    2c68:	4422                	lw	s0,8(sp)
    2c6a:	4781                	li	a5,0
    2c6c:	07de                	slli	a5,a5,0x17
    2c6e:	8d5d                	or	a0,a0,a5
    2c70:	0141                	addi	sp,sp,16
    2c72:	8082                	ret
    2c74:	09900793          	li	a5,153
    2c78:	00e7dd63          	bge	a5,a4,2c92 <__floatunsisf+0x76>
    2c7c:	01b50793          	addi	a5,a0,27
    2c80:	4695                	li	a3,5
    2c82:	00f417b3          	sll	a5,s0,a5
    2c86:	8e89                	sub	a3,a3,a0
    2c88:	00f037b3          	snez	a5,a5
    2c8c:	00d45433          	srl	s0,s0,a3
    2c90:	8c5d                	or	s0,s0,a5
    2c92:	4795                	li	a5,5
    2c94:	00a7d663          	bge	a5,a0,2ca0 <__floatunsisf+0x84>
    2c98:	ffb50793          	addi	a5,a0,-5
    2c9c:	00f41433          	sll	s0,s0,a5
    2ca0:	fc0006b7          	lui	a3,0xfc000
    2ca4:	16fd                	addi	a3,a3,-1
    2ca6:	00747793          	andi	a5,s0,7
    2caa:	00d47633          	and	a2,s0,a3
    2cae:	c385                	beqz	a5,2cce <__floatunsisf+0xb2>
    2cb0:	00f47793          	andi	a5,s0,15
    2cb4:	4591                	li	a1,4
    2cb6:	00b78c63          	beq	a5,a1,2cce <__floatunsisf+0xb2>
    2cba:	0611                	addi	a2,a2,4
    2cbc:	00561793          	slli	a5,a2,0x5
    2cc0:	0007d763          	bgez	a5,2cce <__floatunsisf+0xb2>
    2cc4:	09f00793          	li	a5,159
    2cc8:	8e75                	and	a2,a2,a3
    2cca:	40a78733          	sub	a4,a5,a0
    2cce:	00661413          	slli	s0,a2,0x6
    2cd2:	8025                	srli	s0,s0,0x9
    2cd4:	0426                	slli	s0,s0,0x9
    2cd6:	00945513          	srli	a0,s0,0x9
    2cda:	40b2                	lw	ra,12(sp)
    2cdc:	4422                	lw	s0,8(sp)
    2cde:	0ff77793          	andi	a5,a4,255
    2ce2:	07de                	slli	a5,a5,0x17
    2ce4:	8d5d                	or	a0,a0,a5
    2ce6:	0141                	addi	sp,sp,16
    2ce8:	8082                	ret

00002cea <__extendsfdf2>:
    2cea:	01755713          	srli	a4,a0,0x17
    2cee:	0ff77713          	andi	a4,a4,255
    2cf2:	1141                	addi	sp,sp,-16
    2cf4:	00170793          	addi	a5,a4,1
    2cf8:	c422                	sw	s0,8(sp)
    2cfa:	c226                	sw	s1,4(sp)
    2cfc:	00951413          	slli	s0,a0,0x9
    2d00:	c606                	sw	ra,12(sp)
    2d02:	0fe7f793          	andi	a5,a5,254
    2d06:	8025                	srli	s0,s0,0x9
    2d08:	01f55493          	srli	s1,a0,0x1f
    2d0c:	c785                	beqz	a5,2d34 <__extendsfdf2+0x4a>
    2d0e:	00345793          	srli	a5,s0,0x3
    2d12:	38070713          	addi	a4,a4,896
    2d16:	0476                	slli	s0,s0,0x1d
    2d18:	07b2                	slli	a5,a5,0xc
    2d1a:	0752                	slli	a4,a4,0x14
    2d1c:	83b1                	srli	a5,a5,0xc
    2d1e:	01f49513          	slli	a0,s1,0x1f
    2d22:	8fd9                	or	a5,a5,a4
    2d24:	8fc9                	or	a5,a5,a0
    2d26:	40b2                	lw	ra,12(sp)
    2d28:	8522                	mv	a0,s0
    2d2a:	4422                	lw	s0,8(sp)
    2d2c:	4492                	lw	s1,4(sp)
    2d2e:	85be                	mv	a1,a5
    2d30:	0141                	addi	sp,sp,16
    2d32:	8082                	ret
    2d34:	eb05                	bnez	a4,2d64 <__extendsfdf2+0x7a>
    2d36:	c439                	beqz	s0,2d84 <__extendsfdf2+0x9a>
    2d38:	8522                	mv	a0,s0
    2d3a:	22d9                	jal	2f00 <__clzsi2>
    2d3c:	47a9                	li	a5,10
    2d3e:	04a7c663          	blt	a5,a0,2d8a <__extendsfdf2+0xa0>
    2d42:	472d                	li	a4,11
    2d44:	8f09                	sub	a4,a4,a0
    2d46:	01550793          	addi	a5,a0,21
    2d4a:	00e45733          	srl	a4,s0,a4
    2d4e:	00f41433          	sll	s0,s0,a5
    2d52:	00c71793          	slli	a5,a4,0xc
    2d56:	38900713          	li	a4,905
    2d5a:	8f09                	sub	a4,a4,a0
    2d5c:	83b1                	srli	a5,a5,0xc
    2d5e:	7ff77713          	andi	a4,a4,2047
    2d62:	bf5d                	j	2d18 <__extendsfdf2+0x2e>
    2d64:	cc01                	beqz	s0,2d7c <__extendsfdf2+0x92>
    2d66:	00345713          	srli	a4,s0,0x3
    2d6a:	000807b7          	lui	a5,0x80
    2d6e:	8fd9                	or	a5,a5,a4
    2d70:	07b2                	slli	a5,a5,0xc
    2d72:	0476                	slli	s0,s0,0x1d
    2d74:	83b1                	srli	a5,a5,0xc
    2d76:	7ff00713          	li	a4,2047
    2d7a:	bf79                	j	2d18 <__extendsfdf2+0x2e>
    2d7c:	7ff00713          	li	a4,2047
    2d80:	4781                	li	a5,0
    2d82:	bf59                	j	2d18 <__extendsfdf2+0x2e>
    2d84:	4701                	li	a4,0
    2d86:	4781                	li	a5,0
    2d88:	bf41                	j	2d18 <__extendsfdf2+0x2e>
    2d8a:	ff550713          	addi	a4,a0,-11
    2d8e:	00e41733          	sll	a4,s0,a4
    2d92:	4401                	li	s0,0
    2d94:	bf7d                	j	2d52 <__extendsfdf2+0x68>

00002d96 <__truncdfsf2>:
    2d96:	0145d693          	srli	a3,a1,0x14
    2d9a:	00c59793          	slli	a5,a1,0xc
    2d9e:	7ff6f693          	andi	a3,a3,2047
    2da2:	83b1                	srli	a5,a5,0xc
    2da4:	00168613          	addi	a2,a3,1 # fc000001 <_eusrstack+0xdbffd801>
    2da8:	078e                	slli	a5,a5,0x3
    2daa:	01d55713          	srli	a4,a0,0x1d
    2dae:	7fe67613          	andi	a2,a2,2046
    2db2:	81fd                	srli	a1,a1,0x1f
    2db4:	8f5d                	or	a4,a4,a5
    2db6:	00351893          	slli	a7,a0,0x3
    2dba:	ce35                	beqz	a2,2e36 <__truncdfsf2+0xa0>
    2dbc:	c8068813          	addi	a6,a3,-896
    2dc0:	0fe00793          	li	a5,254
    2dc4:	0107dd63          	bge	a5,a6,2dde <__truncdfsf2+0x48>
    2dc8:	4781                	li	a5,0
    2dca:	00979513          	slli	a0,a5,0x9
    2dce:	0ff00693          	li	a3,255
    2dd2:	06de                	slli	a3,a3,0x17
    2dd4:	8125                	srli	a0,a0,0x9
    2dd6:	05fe                	slli	a1,a1,0x1f
    2dd8:	8d55                	or	a0,a0,a3
    2dda:	8d4d                	or	a0,a0,a1
    2ddc:	8082                	ret
    2dde:	0b005563          	blez	a6,2e88 <__truncdfsf2+0xf2>
    2de2:	00651793          	slli	a5,a0,0x6
    2de6:	070e                	slli	a4,a4,0x3
    2de8:	00f037b3          	snez	a5,a5
    2dec:	8fd9                	or	a5,a5,a4
    2dee:	01d8d893          	srli	a7,a7,0x1d
    2df2:	0117e7b3          	or	a5,a5,a7
    2df6:	0077f713          	andi	a4,a5,7
    2dfa:	10070163          	beqz	a4,2efc <__truncdfsf2+0x166>
    2dfe:	00f7f713          	andi	a4,a5,15
    2e02:	4691                	li	a3,4
    2e04:	00d70363          	beq	a4,a3,2e0a <__truncdfsf2+0x74>
    2e08:	0791                	addi	a5,a5,4
    2e0a:	04000737          	lui	a4,0x4000
    2e0e:	8f7d                	and	a4,a4,a5
    2e10:	c775                	beqz	a4,2efc <__truncdfsf2+0x166>
    2e12:	00180713          	addi	a4,a6,1
    2e16:	0ff00613          	li	a2,255
    2e1a:	0ff77693          	andi	a3,a4,255
    2e1e:	fac705e3          	beq	a4,a2,2dc8 <__truncdfsf2+0x32>
    2e22:	079a                	slli	a5,a5,0x6
    2e24:	83a5                	srli	a5,a5,0x9
    2e26:	00979513          	slli	a0,a5,0x9
    2e2a:	06de                	slli	a3,a3,0x17
    2e2c:	8125                	srli	a0,a0,0x9
    2e2e:	05fe                	slli	a1,a1,0x1f
    2e30:	8d55                	or	a0,a0,a3
    2e32:	8d4d                	or	a0,a0,a1
    2e34:	8082                	ret
    2e36:	011767b3          	or	a5,a4,a7
    2e3a:	ee99                	bnez	a3,2e58 <__truncdfsf2+0xc2>
    2e3c:	cf85                	beqz	a5,2e74 <__truncdfsf2+0xde>
    2e3e:	4795                	li	a5,5
    2e40:	079a                	slli	a5,a5,0x6
    2e42:	83a5                	srli	a5,a5,0x9
    2e44:	00979513          	slli	a0,a5,0x9
    2e48:	0ff6f693          	andi	a3,a3,255
    2e4c:	06de                	slli	a3,a3,0x17
    2e4e:	8125                	srli	a0,a0,0x9
    2e50:	05fe                	slli	a1,a1,0x1f
    2e52:	8d55                	or	a0,a0,a3
    2e54:	8d4d                	or	a0,a0,a1
    2e56:	8082                	ret
    2e58:	dba5                	beqz	a5,2dc8 <__truncdfsf2+0x32>
    2e5a:	004007b7          	lui	a5,0x400
    2e5e:	00979513          	slli	a0,a5,0x9
    2e62:	0ff00693          	li	a3,255
    2e66:	06de                	slli	a3,a3,0x17
    2e68:	4581                	li	a1,0
    2e6a:	8125                	srli	a0,a0,0x9
    2e6c:	05fe                	slli	a1,a1,0x1f
    2e6e:	8d55                	or	a0,a0,a3
    2e70:	8d4d                	or	a0,a0,a1
    2e72:	8082                	ret
    2e74:	4781                	li	a5,0
    2e76:	00979513          	slli	a0,a5,0x9
    2e7a:	4681                	li	a3,0
    2e7c:	06de                	slli	a3,a3,0x17
    2e7e:	8125                	srli	a0,a0,0x9
    2e80:	05fe                	slli	a1,a1,0x1f
    2e82:	8d55                	or	a0,a0,a3
    2e84:	8d4d                	or	a0,a0,a1
    2e86:	8082                	ret
    2e88:	57a5                	li	a5,-23
    2e8a:	04f84863          	blt	a6,a5,2eda <__truncdfsf2+0x144>
    2e8e:	47f9                	li	a5,30
    2e90:	00800637          	lui	a2,0x800
    2e94:	410787b3          	sub	a5,a5,a6
    2e98:	457d                	li	a0,31
    2e9a:	8e59                	or	a2,a2,a4
    2e9c:	04f55163          	bge	a0,a5,2ede <__truncdfsf2+0x148>
    2ea0:	5779                	li	a4,-2
    2ea2:	41070733          	sub	a4,a4,a6
    2ea6:	02000513          	li	a0,32
    2eaa:	00e65733          	srl	a4,a2,a4
    2eae:	00a78863          	beq	a5,a0,2ebe <__truncdfsf2+0x128>
    2eb2:	ca268693          	addi	a3,a3,-862
    2eb6:	00d616b3          	sll	a3,a2,a3
    2eba:	00d8e8b3          	or	a7,a7,a3
    2ebe:	011037b3          	snez	a5,a7
    2ec2:	8fd9                	or	a5,a5,a4
    2ec4:	0077f713          	andi	a4,a5,7
    2ec8:	4801                	li	a6,0
    2eca:	fb15                	bnez	a4,2dfe <__truncdfsf2+0x68>
    2ecc:	00579713          	slli	a4,a5,0x5
    2ed0:	4685                	li	a3,1
    2ed2:	f40748e3          	bltz	a4,2e22 <__truncdfsf2+0x8c>
    2ed6:	4681                	li	a3,0
    2ed8:	b7a5                	j	2e40 <__truncdfsf2+0xaa>
    2eda:	4681                	li	a3,0
    2edc:	b78d                	j	2e3e <__truncdfsf2+0xa8>
    2ede:	c8268693          	addi	a3,a3,-894
    2ee2:	00d89733          	sll	a4,a7,a3
    2ee6:	00e03733          	snez	a4,a4
    2eea:	00d616b3          	sll	a3,a2,a3
    2eee:	00f8d8b3          	srl	a7,a7,a5
    2ef2:	00d767b3          	or	a5,a4,a3
    2ef6:	00f8e7b3          	or	a5,a7,a5
    2efa:	b7e9                	j	2ec4 <__truncdfsf2+0x12e>
    2efc:	86c2                	mv	a3,a6
    2efe:	b789                	j	2e40 <__truncdfsf2+0xaa>

00002f00 <__clzsi2>:
    2f00:	67c1                	lui	a5,0x10
    2f02:	02f57c63          	bgeu	a0,a5,2f3a <__clzsi2+0x3a>
    2f06:	0ff00793          	li	a5,255
    2f0a:	02000713          	li	a4,32
    2f0e:	00a7eb63          	bltu	a5,a0,2f24 <__clzsi2+0x24>
    2f12:	00002797          	auipc	a5,0x2
    2f16:	c9a78793          	addi	a5,a5,-870 # 4bac <__clz_tab>
    2f1a:	97aa                	add	a5,a5,a0
    2f1c:	2388                	lbu	a0,0(a5)
    2f1e:	40a70533          	sub	a0,a4,a0
    2f22:	8082                	ret
    2f24:	8121                	srli	a0,a0,0x8
    2f26:	00002797          	auipc	a5,0x2
    2f2a:	c8678793          	addi	a5,a5,-890 # 4bac <__clz_tab>
    2f2e:	97aa                	add	a5,a5,a0
    2f30:	2388                	lbu	a0,0(a5)
    2f32:	4761                	li	a4,24
    2f34:	40a70533          	sub	a0,a4,a0
    2f38:	8082                	ret
    2f3a:	010007b7          	lui	a5,0x1000
    2f3e:	00f56d63          	bltu	a0,a5,2f58 <__clzsi2+0x58>
    2f42:	8161                	srli	a0,a0,0x18
    2f44:	00002797          	auipc	a5,0x2
    2f48:	c6878793          	addi	a5,a5,-920 # 4bac <__clz_tab>
    2f4c:	97aa                	add	a5,a5,a0
    2f4e:	2388                	lbu	a0,0(a5)
    2f50:	4721                	li	a4,8
    2f52:	40a70533          	sub	a0,a4,a0
    2f56:	8082                	ret
    2f58:	8141                	srli	a0,a0,0x10
    2f5a:	00002797          	auipc	a5,0x2
    2f5e:	c5278793          	addi	a5,a5,-942 # 4bac <__clz_tab>
    2f62:	97aa                	add	a5,a5,a0
    2f64:	2388                	lbu	a0,0(a5)
    2f66:	4741                	li	a4,16
    2f68:	40a70533          	sub	a0,a4,a0
    2f6c:	8082                	ret

00002f6e <malloc>:
    2f6e:	80818793          	addi	a5,gp,-2040 # 20000088 <_impure_ptr>
    2f72:	85aa                	mv	a1,a0
    2f74:	4388                	lw	a0,0(a5)
    2f76:	a8dd                	j	306c <_malloc_r>

00002f78 <free>:
    2f78:	80818793          	addi	a5,gp,-2040 # 20000088 <_impure_ptr>
    2f7c:	85aa                	mv	a1,a0
    2f7e:	4388                	lw	a0,0(a5)
    2f80:	a0a1                	j	2fc8 <_free_r>

00002f82 <memmove>:
    2f82:	04a5f163          	bgeu	a1,a0,2fc4 <memmove+0x42>
    2f86:	00c586b3          	add	a3,a1,a2
    2f8a:	02d57d63          	bgeu	a0,a3,2fc4 <memmove+0x42>
    2f8e:	fff64593          	not	a1,a2
    2f92:	4781                	li	a5,0
    2f94:	17fd                	addi	a5,a5,-1
    2f96:	00f59363          	bne	a1,a5,2f9c <memmove+0x1a>
    2f9a:	8082                	ret
    2f9c:	00f68733          	add	a4,a3,a5
    2fa0:	00074803          	lbu	a6,0(a4) # 4000000 <_data_lma+0x3ffb318>
    2fa4:	00c78733          	add	a4,a5,a2
    2fa8:	972a                	add	a4,a4,a0
    2faa:	01070023          	sb	a6,0(a4)
    2fae:	b7dd                	j	2f94 <memmove+0x12>
    2fb0:	00f58733          	add	a4,a1,a5
    2fb4:	2314                	lbu	a3,0(a4)
    2fb6:	00f50733          	add	a4,a0,a5
    2fba:	0785                	addi	a5,a5,1
    2fbc:	a314                	sb	a3,0(a4)
    2fbe:	fef619e3          	bne	a2,a5,2fb0 <memmove+0x2e>
    2fc2:	8082                	ret
    2fc4:	4781                	li	a5,0
    2fc6:	bfe5                	j	2fbe <memmove+0x3c>

00002fc8 <_free_r>:
    2fc8:	c1cd                	beqz	a1,306a <_free_r+0xa2>
    2fca:	ffc5a783          	lw	a5,-4(a1)
    2fce:	1141                	addi	sp,sp,-16
    2fd0:	c422                	sw	s0,8(sp)
    2fd2:	c606                	sw	ra,12(sp)
    2fd4:	c226                	sw	s1,4(sp)
    2fd6:	ffc58413          	addi	s0,a1,-4
    2fda:	0007d363          	bgez	a5,2fe0 <_free_r+0x18>
    2fde:	943e                	add	s0,s0,a5
    2fe0:	84aa                	mv	s1,a0
    2fe2:	22f9                	jal	31b0 <__malloc_lock>
    2fe4:	81c18793          	addi	a5,gp,-2020 # 2000009c <__malloc_free_list>
    2fe8:	439c                	lw	a5,0(a5)
    2fea:	eb99                	bnez	a5,3000 <_free_r+0x38>
    2fec:	00042223          	sw	zero,4(s0) # 4000004 <_data_lma+0x3ffb31c>
    2ff0:	8081ae23          	sw	s0,-2020(gp) # 2000009c <__malloc_free_list>
    2ff4:	4422                	lw	s0,8(sp)
    2ff6:	40b2                	lw	ra,12(sp)
    2ff8:	8526                	mv	a0,s1
    2ffa:	4492                	lw	s1,4(sp)
    2ffc:	0141                	addi	sp,sp,16
    2ffe:	aa55                	j	31b2 <__malloc_unlock>
    3000:	00f47e63          	bgeu	s0,a5,301c <_free_r+0x54>
    3004:	4014                	lw	a3,0(s0)
    3006:	00d40733          	add	a4,s0,a3
    300a:	00e79663          	bne	a5,a4,3016 <_free_r+0x4e>
    300e:	4398                	lw	a4,0(a5)
    3010:	43dc                	lw	a5,4(a5)
    3012:	9736                	add	a4,a4,a3
    3014:	c018                	sw	a4,0(s0)
    3016:	c05c                	sw	a5,4(s0)
    3018:	bfe1                	j	2ff0 <_free_r+0x28>
    301a:	87ba                	mv	a5,a4
    301c:	43d8                	lw	a4,4(a5)
    301e:	c319                	beqz	a4,3024 <_free_r+0x5c>
    3020:	fee47de3          	bgeu	s0,a4,301a <_free_r+0x52>
    3024:	4394                	lw	a3,0(a5)
    3026:	00d78633          	add	a2,a5,a3
    302a:	00861f63          	bne	a2,s0,3048 <_free_r+0x80>
    302e:	4010                	lw	a2,0(s0)
    3030:	96b2                	add	a3,a3,a2
    3032:	c394                	sw	a3,0(a5)
    3034:	00d78633          	add	a2,a5,a3
    3038:	fac71ee3          	bne	a4,a2,2ff4 <_free_r+0x2c>
    303c:	4310                	lw	a2,0(a4)
    303e:	4358                	lw	a4,4(a4)
    3040:	96b2                	add	a3,a3,a2
    3042:	c394                	sw	a3,0(a5)
    3044:	c3d8                	sw	a4,4(a5)
    3046:	b77d                	j	2ff4 <_free_r+0x2c>
    3048:	00c47563          	bgeu	s0,a2,3052 <_free_r+0x8a>
    304c:	47b1                	li	a5,12
    304e:	c09c                	sw	a5,0(s1)
    3050:	b755                	j	2ff4 <_free_r+0x2c>
    3052:	4010                	lw	a2,0(s0)
    3054:	00c406b3          	add	a3,s0,a2
    3058:	00d71663          	bne	a4,a3,3064 <_free_r+0x9c>
    305c:	4314                	lw	a3,0(a4)
    305e:	4358                	lw	a4,4(a4)
    3060:	96b2                	add	a3,a3,a2
    3062:	c014                	sw	a3,0(s0)
    3064:	c058                	sw	a4,4(s0)
    3066:	c3c0                	sw	s0,4(a5)
    3068:	b771                	j	2ff4 <_free_r+0x2c>
    306a:	8082                	ret

0000306c <_malloc_r>:
    306c:	1101                	addi	sp,sp,-32
    306e:	ca26                	sw	s1,20(sp)
    3070:	00358493          	addi	s1,a1,3
    3074:	98f1                	andi	s1,s1,-4
    3076:	ce06                	sw	ra,28(sp)
    3078:	cc22                	sw	s0,24(sp)
    307a:	c84a                	sw	s2,16(sp)
    307c:	c64e                	sw	s3,12(sp)
    307e:	04a1                	addi	s1,s1,8
    3080:	47b1                	li	a5,12
    3082:	04f4f163          	bgeu	s1,a5,30c4 <_malloc_r+0x58>
    3086:	44b1                	li	s1,12
    3088:	04b4e063          	bltu	s1,a1,30c8 <_malloc_r+0x5c>
    308c:	892a                	mv	s2,a0
    308e:	220d                	jal	31b0 <__malloc_lock>
    3090:	81c18793          	addi	a5,gp,-2020 # 2000009c <__malloc_free_list>
    3094:	4398                	lw	a4,0(a5)
    3096:	843a                	mv	s0,a4
    3098:	e031                	bnez	s0,30dc <_malloc_r+0x70>
    309a:	82018793          	addi	a5,gp,-2016 # 200000a0 <__malloc_sbrk_start>
    309e:	439c                	lw	a5,0(a5)
    30a0:	e791                	bnez	a5,30ac <_malloc_r+0x40>
    30a2:	4581                	li	a1,0
    30a4:	854a                	mv	a0,s2
    30a6:	2851                	jal	313a <_sbrk_r>
    30a8:	82a1a023          	sw	a0,-2016(gp) # 200000a0 <__malloc_sbrk_start>
    30ac:	85a6                	mv	a1,s1
    30ae:	854a                	mv	a0,s2
    30b0:	2069                	jal	313a <_sbrk_r>
    30b2:	59fd                	li	s3,-1
    30b4:	07351763          	bne	a0,s3,3122 <_malloc_r+0xb6>
    30b8:	47b1                	li	a5,12
    30ba:	00f92023          	sw	a5,0(s2)
    30be:	854a                	mv	a0,s2
    30c0:	28cd                	jal	31b2 <__malloc_unlock>
    30c2:	a029                	j	30cc <_malloc_r+0x60>
    30c4:	fc04d2e3          	bgez	s1,3088 <_malloc_r+0x1c>
    30c8:	47b1                	li	a5,12
    30ca:	c11c                	sw	a5,0(a0)
    30cc:	4501                	li	a0,0
    30ce:	40f2                	lw	ra,28(sp)
    30d0:	4462                	lw	s0,24(sp)
    30d2:	44d2                	lw	s1,20(sp)
    30d4:	4942                	lw	s2,16(sp)
    30d6:	49b2                	lw	s3,12(sp)
    30d8:	6105                	addi	sp,sp,32
    30da:	8082                	ret
    30dc:	401c                	lw	a5,0(s0)
    30de:	8f85                	sub	a5,a5,s1
    30e0:	0207ce63          	bltz	a5,311c <_malloc_r+0xb0>
    30e4:	46ad                	li	a3,11
    30e6:	00f6f663          	bgeu	a3,a5,30f2 <_malloc_r+0x86>
    30ea:	c01c                	sw	a5,0(s0)
    30ec:	943e                	add	s0,s0,a5
    30ee:	c004                	sw	s1,0(s0)
    30f0:	a031                	j	30fc <_malloc_r+0x90>
    30f2:	405c                	lw	a5,4(s0)
    30f4:	02871263          	bne	a4,s0,3118 <_malloc_r+0xac>
    30f8:	80f1ae23          	sw	a5,-2020(gp) # 2000009c <__malloc_free_list>
    30fc:	854a                	mv	a0,s2
    30fe:	2855                	jal	31b2 <__malloc_unlock>
    3100:	00b40513          	addi	a0,s0,11
    3104:	00440793          	addi	a5,s0,4
    3108:	9961                	andi	a0,a0,-8
    310a:	40f50733          	sub	a4,a0,a5
    310e:	d361                	beqz	a4,30ce <_malloc_r+0x62>
    3110:	943a                	add	s0,s0,a4
    3112:	8f89                	sub	a5,a5,a0
    3114:	c01c                	sw	a5,0(s0)
    3116:	bf65                	j	30ce <_malloc_r+0x62>
    3118:	c35c                	sw	a5,4(a4)
    311a:	b7cd                	j	30fc <_malloc_r+0x90>
    311c:	8722                	mv	a4,s0
    311e:	4040                	lw	s0,4(s0)
    3120:	bfa5                	j	3098 <_malloc_r+0x2c>
    3122:	00350413          	addi	s0,a0,3
    3126:	9871                	andi	s0,s0,-4
    3128:	fc8503e3          	beq	a0,s0,30ee <_malloc_r+0x82>
    312c:	40a405b3          	sub	a1,s0,a0
    3130:	854a                	mv	a0,s2
    3132:	2021                	jal	313a <_sbrk_r>
    3134:	fb351de3          	bne	a0,s3,30ee <_malloc_r+0x82>
    3138:	b741                	j	30b8 <_malloc_r+0x4c>

0000313a <_sbrk_r>:
    313a:	1141                	addi	sp,sp,-16
    313c:	c422                	sw	s0,8(sp)
    313e:	842a                	mv	s0,a0
    3140:	852e                	mv	a0,a1
    3142:	9401a423          	sw	zero,-1720(gp) # 200001c8 <errno>
    3146:	c606                	sw	ra,12(sp)
    3148:	08f000ef          	jal	ra,39d6 <_sbrk>
    314c:	57fd                	li	a5,-1
    314e:	00f51763          	bne	a0,a5,315c <_sbrk_r+0x22>
    3152:	94818793          	addi	a5,gp,-1720 # 200001c8 <errno>
    3156:	439c                	lw	a5,0(a5)
    3158:	c391                	beqz	a5,315c <_sbrk_r+0x22>
    315a:	c01c                	sw	a5,0(s0)
    315c:	40b2                	lw	ra,12(sp)
    315e:	4422                	lw	s0,8(sp)
    3160:	0141                	addi	sp,sp,16
    3162:	8082                	ret

00003164 <strlen>:
    3164:	87aa                	mv	a5,a0
    3166:	0785                	addi	a5,a5,1
    3168:	fff7c703          	lbu	a4,-1(a5)
    316c:	ff6d                	bnez	a4,3166 <strlen+0x2>
    316e:	40a78533          	sub	a0,a5,a0
    3172:	157d                	addi	a0,a0,-1
    3174:	8082                	ret

00003176 <_vsiprintf_r>:
    3176:	800007b7          	lui	a5,0x80000
    317a:	7119                	addi	sp,sp,-128
    317c:	fff7c793          	not	a5,a5
    3180:	ce3e                	sw	a5,28(sp)
    3182:	c83e                	sw	a5,16(sp)
    3184:	77c1                	lui	a5,0xffff0
    3186:	c42e                	sw	a1,8(sp)
    3188:	cc2e                	sw	a1,24(sp)
    318a:	20878793          	addi	a5,a5,520 # ffff0208 <_eusrstack+0xdffeda08>
    318e:	002c                	addi	a1,sp,8
    3190:	de86                	sw	ra,124(sp)
    3192:	ca3e                	sw	a5,20(sp)
    3194:	28fd                	jal	3292 <_svfiprintf_r>
    3196:	47a2                	lw	a5,8(sp)
    3198:	00078023          	sb	zero,0(a5)
    319c:	50f6                	lw	ra,124(sp)
    319e:	6109                	addi	sp,sp,128
    31a0:	8082                	ret

000031a2 <vsiprintf>:
    31a2:	80818793          	addi	a5,gp,-2040 # 20000088 <_impure_ptr>
    31a6:	86b2                	mv	a3,a2
    31a8:	862e                	mv	a2,a1
    31aa:	85aa                	mv	a1,a0
    31ac:	4388                	lw	a0,0(a5)
    31ae:	b7e1                	j	3176 <_vsiprintf_r>

000031b0 <__malloc_lock>:
    31b0:	8082                	ret

000031b2 <__malloc_unlock>:
    31b2:	8082                	ret

000031b4 <__ssputs_r>:
    31b4:	1101                	addi	sp,sp,-32
    31b6:	c84a                	sw	s2,16(sp)
    31b8:	0085a903          	lw	s2,8(a1)
    31bc:	cc22                	sw	s0,24(sp)
    31be:	c452                	sw	s4,8(sp)
    31c0:	c05a                	sw	s6,0(sp)
    31c2:	ce06                	sw	ra,28(sp)
    31c4:	ca26                	sw	s1,20(sp)
    31c6:	c64e                	sw	s3,12(sp)
    31c8:	c256                	sw	s5,4(sp)
    31ca:	842e                	mv	s0,a1
    31cc:	8b32                	mv	s6,a2
    31ce:	8a36                	mv	s4,a3
    31d0:	0926e763          	bltu	a3,s2,325e <__ssputs_r+0xaa>
    31d4:	25de                	lhu	a5,12(a1)
    31d6:	4807f713          	andi	a4,a5,1152
    31da:	c341                	beqz	a4,325a <__ssputs_r+0xa6>
    31dc:	4004                	lw	s1,0(s0)
    31de:	498c                	lw	a1,16(a1)
    31e0:	4858                	lw	a4,20(s0)
    31e2:	8aaa                	mv	s5,a0
    31e4:	40b489b3          	sub	s3,s1,a1
    31e8:	448d                	li	s1,3
    31ea:	02e484b3          	mul	s1,s1,a4
    31ee:	4709                	li	a4,2
    31f0:	02e4c4b3          	div	s1,s1,a4
    31f4:	00168713          	addi	a4,a3,1
    31f8:	974e                	add	a4,a4,s3
    31fa:	00e4f363          	bgeu	s1,a4,3200 <__ssputs_r+0x4c>
    31fe:	84ba                	mv	s1,a4
    3200:	4007f793          	andi	a5,a5,1024
    3204:	cfad                	beqz	a5,327e <__ssputs_r+0xca>
    3206:	85a6                	mv	a1,s1
    3208:	8556                	mv	a0,s5
    320a:	358d                	jal	306c <_malloc_r>
    320c:	892a                	mv	s2,a0
    320e:	e11d                	bnez	a0,3234 <__ssputs_r+0x80>
    3210:	47b1                	li	a5,12
    3212:	00faa023          	sw	a5,0(s5)
    3216:	245e                	lhu	a5,12(s0)
    3218:	557d                	li	a0,-1
    321a:	0407e793          	ori	a5,a5,64
    321e:	a45e                	sh	a5,12(s0)
    3220:	40f2                	lw	ra,28(sp)
    3222:	4462                	lw	s0,24(sp)
    3224:	44d2                	lw	s1,20(sp)
    3226:	4942                	lw	s2,16(sp)
    3228:	49b2                	lw	s3,12(sp)
    322a:	4a22                	lw	s4,8(sp)
    322c:	4a92                	lw	s5,4(sp)
    322e:	4b02                	lw	s6,0(sp)
    3230:	6105                	addi	sp,sp,32
    3232:	8082                	ret
    3234:	480c                	lw	a1,16(s0)
    3236:	864e                	mv	a2,s3
    3238:	2549                	jal	38ba <memcpy>
    323a:	245e                	lhu	a5,12(s0)
    323c:	b7f7f793          	andi	a5,a5,-1153
    3240:	0807e793          	ori	a5,a5,128
    3244:	a45e                	sh	a5,12(s0)
    3246:	01242823          	sw	s2,16(s0)
    324a:	c844                	sw	s1,20(s0)
    324c:	994e                	add	s2,s2,s3
    324e:	413484b3          	sub	s1,s1,s3
    3252:	01242023          	sw	s2,0(s0)
    3256:	c404                	sw	s1,8(s0)
    3258:	8952                	mv	s2,s4
    325a:	012a7363          	bgeu	s4,s2,3260 <__ssputs_r+0xac>
    325e:	8952                	mv	s2,s4
    3260:	4008                	lw	a0,0(s0)
    3262:	864a                	mv	a2,s2
    3264:	85da                	mv	a1,s6
    3266:	d1dff0ef          	jal	ra,2f82 <memmove>
    326a:	441c                	lw	a5,8(s0)
    326c:	4501                	li	a0,0
    326e:	412787b3          	sub	a5,a5,s2
    3272:	c41c                	sw	a5,8(s0)
    3274:	401c                	lw	a5,0(s0)
    3276:	993e                	add	s2,s2,a5
    3278:	01242023          	sw	s2,0(s0)
    327c:	b755                	j	3220 <__ssputs_r+0x6c>
    327e:	8626                	mv	a2,s1
    3280:	8556                	mv	a0,s5
    3282:	25ed                	jal	396c <_realloc_r>
    3284:	892a                	mv	s2,a0
    3286:	f161                	bnez	a0,3246 <__ssputs_r+0x92>
    3288:	480c                	lw	a1,16(s0)
    328a:	8556                	mv	a0,s5
    328c:	d3dff0ef          	jal	ra,2fc8 <_free_r>
    3290:	b741                	j	3210 <__ssputs_r+0x5c>

00003292 <_svfiprintf_r>:
    3292:	25de                	lhu	a5,12(a1)
    3294:	7171                	addi	sp,sp,-176
    3296:	d326                	sw	s1,164(sp)
    3298:	d14a                	sw	s2,160(sp)
    329a:	cf4e                	sw	s3,156(sp)
    329c:	d706                	sw	ra,172(sp)
    329e:	d522                	sw	s0,168(sp)
    32a0:	cd52                	sw	s4,152(sp)
    32a2:	cb56                	sw	s5,148(sp)
    32a4:	c95a                	sw	s6,144(sp)
    32a6:	c75e                	sw	s7,140(sp)
    32a8:	c562                	sw	s8,136(sp)
    32aa:	c366                	sw	s9,132(sp)
    32ac:	0807f793          	andi	a5,a5,128
    32b0:	89aa                	mv	s3,a0
    32b2:	892e                	mv	s2,a1
    32b4:	84b2                	mv	s1,a2
    32b6:	c3b9                	beqz	a5,32fc <_svfiprintf_r+0x6a>
    32b8:	499c                	lw	a5,16(a1)
    32ba:	e3a9                	bnez	a5,32fc <_svfiprintf_r+0x6a>
    32bc:	04000593          	li	a1,64
    32c0:	c636                	sw	a3,12(sp)
    32c2:	dabff0ef          	jal	ra,306c <_malloc_r>
    32c6:	00a92023          	sw	a0,0(s2)
    32ca:	00a92823          	sw	a0,16(s2)
    32ce:	46b2                	lw	a3,12(sp)
    32d0:	e115                	bnez	a0,32f4 <_svfiprintf_r+0x62>
    32d2:	47b1                	li	a5,12
    32d4:	00f9a023          	sw	a5,0(s3)
    32d8:	557d                	li	a0,-1
    32da:	50ba                	lw	ra,172(sp)
    32dc:	542a                	lw	s0,168(sp)
    32de:	549a                	lw	s1,164(sp)
    32e0:	590a                	lw	s2,160(sp)
    32e2:	49fa                	lw	s3,156(sp)
    32e4:	4a6a                	lw	s4,152(sp)
    32e6:	4ada                	lw	s5,148(sp)
    32e8:	4b4a                	lw	s6,144(sp)
    32ea:	4bba                	lw	s7,140(sp)
    32ec:	4c2a                	lw	s8,136(sp)
    32ee:	4c9a                	lw	s9,132(sp)
    32f0:	614d                	addi	sp,sp,176
    32f2:	8082                	ret
    32f4:	04000793          	li	a5,64
    32f8:	00f92a23          	sw	a5,20(s2)
    32fc:	02000793          	li	a5,32
    3300:	02f10ca3          	sb	a5,57(sp)
    3304:	03000793          	li	a5,48
    3308:	da02                	sw	zero,52(sp)
    330a:	02f10d23          	sb	a5,58(sp)
    330e:	ce36                	sw	a3,28(sp)
    3310:	02500b93          	li	s7,37
    3314:	00002a97          	auipc	s5,0x2
    3318:	998a8a93          	addi	s5,s5,-1640 # 4cac <__clz_tab+0x100>
    331c:	4c05                	li	s8,1
    331e:	4b29                	li	s6,10
    3320:	8426                	mv	s0,s1
    3322:	201c                	lbu	a5,0(s0)
    3324:	c399                	beqz	a5,332a <_svfiprintf_r+0x98>
    3326:	09779763          	bne	a5,s7,33b4 <_svfiprintf_r+0x122>
    332a:	40940cb3          	sub	s9,s0,s1
    332e:	000c8d63          	beqz	s9,3348 <_svfiprintf_r+0xb6>
    3332:	86e6                	mv	a3,s9
    3334:	8626                	mv	a2,s1
    3336:	85ca                	mv	a1,s2
    3338:	854e                	mv	a0,s3
    333a:	3dad                	jal	31b4 <__ssputs_r>
    333c:	57fd                	li	a5,-1
    333e:	18f50863          	beq	a0,a5,34ce <_svfiprintf_r+0x23c>
    3342:	56d2                	lw	a3,52(sp)
    3344:	96e6                	add	a3,a3,s9
    3346:	da36                	sw	a3,52(sp)
    3348:	201c                	lbu	a5,0(s0)
    334a:	18078263          	beqz	a5,34ce <_svfiprintf_r+0x23c>
    334e:	57fd                	li	a5,-1
    3350:	00140493          	addi	s1,s0,1
    3354:	d002                	sw	zero,32(sp)
    3356:	d602                	sw	zero,44(sp)
    3358:	d23e                	sw	a5,36(sp)
    335a:	d402                	sw	zero,40(sp)
    335c:	060101a3          	sb	zero,99(sp)
    3360:	dc82                	sw	zero,120(sp)
    3362:	208c                	lbu	a1,0(s1)
    3364:	4615                	li	a2,5
    3366:	8556                	mv	a0,s5
    3368:	2b2d                	jal	38a2 <memchr>
    336a:	00148413          	addi	s0,s1,1
    336e:	5782                	lw	a5,32(sp)
    3370:	e521                	bnez	a0,33b8 <_svfiprintf_r+0x126>
    3372:	0107f713          	andi	a4,a5,16
    3376:	c709                	beqz	a4,3380 <_svfiprintf_r+0xee>
    3378:	02000713          	li	a4,32
    337c:	06e101a3          	sb	a4,99(sp)
    3380:	0087f713          	andi	a4,a5,8
    3384:	c709                	beqz	a4,338e <_svfiprintf_r+0xfc>
    3386:	02b00713          	li	a4,43
    338a:	06e101a3          	sb	a4,99(sp)
    338e:	2094                	lbu	a3,0(s1)
    3390:	02a00713          	li	a4,42
    3394:	02e68a63          	beq	a3,a4,33c8 <_svfiprintf_r+0x136>
    3398:	57b2                	lw	a5,44(sp)
    339a:	8426                	mv	s0,s1
    339c:	4681                	li	a3,0
    339e:	4625                	li	a2,9
    33a0:	2018                	lbu	a4,0(s0)
    33a2:	00140593          	addi	a1,s0,1
    33a6:	fd070713          	addi	a4,a4,-48
    33aa:	06e67263          	bgeu	a2,a4,340e <_svfiprintf_r+0x17c>
    33ae:	c68d                	beqz	a3,33d8 <_svfiprintf_r+0x146>
    33b0:	d63e                	sw	a5,44(sp)
    33b2:	a01d                	j	33d8 <_svfiprintf_r+0x146>
    33b4:	0405                	addi	s0,s0,1
    33b6:	b7b5                	j	3322 <_svfiprintf_r+0x90>
    33b8:	41550533          	sub	a0,a0,s5
    33bc:	00ac1533          	sll	a0,s8,a0
    33c0:	8fc9                	or	a5,a5,a0
    33c2:	d03e                	sw	a5,32(sp)
    33c4:	84a2                	mv	s1,s0
    33c6:	bf71                	j	3362 <_svfiprintf_r+0xd0>
    33c8:	4772                	lw	a4,28(sp)
    33ca:	00470693          	addi	a3,a4,4
    33ce:	4318                	lw	a4,0(a4)
    33d0:	ce36                	sw	a3,28(sp)
    33d2:	02074763          	bltz	a4,3400 <_svfiprintf_r+0x16e>
    33d6:	d63a                	sw	a4,44(sp)
    33d8:	2018                	lbu	a4,0(s0)
    33da:	02e00793          	li	a5,46
    33de:	04f71d63          	bne	a4,a5,3438 <_svfiprintf_r+0x1a6>
    33e2:	3018                	lbu	a4,1(s0)
    33e4:	02a00793          	li	a5,42
    33e8:	02f71b63          	bne	a4,a5,341e <_svfiprintf_r+0x18c>
    33ec:	47f2                	lw	a5,28(sp)
    33ee:	0409                	addi	s0,s0,2
    33f0:	00478713          	addi	a4,a5,4
    33f4:	439c                	lw	a5,0(a5)
    33f6:	ce3a                	sw	a4,28(sp)
    33f8:	0207c163          	bltz	a5,341a <_svfiprintf_r+0x188>
    33fc:	d23e                	sw	a5,36(sp)
    33fe:	a82d                	j	3438 <_svfiprintf_r+0x1a6>
    3400:	40e00733          	neg	a4,a4
    3404:	0027e793          	ori	a5,a5,2
    3408:	d63a                	sw	a4,44(sp)
    340a:	d03e                	sw	a5,32(sp)
    340c:	b7f1                	j	33d8 <_svfiprintf_r+0x146>
    340e:	036787b3          	mul	a5,a5,s6
    3412:	4685                	li	a3,1
    3414:	842e                	mv	s0,a1
    3416:	97ba                	add	a5,a5,a4
    3418:	b761                	j	33a0 <_svfiprintf_r+0x10e>
    341a:	57fd                	li	a5,-1
    341c:	b7c5                	j	33fc <_svfiprintf_r+0x16a>
    341e:	0405                	addi	s0,s0,1
    3420:	d202                	sw	zero,36(sp)
    3422:	4681                	li	a3,0
    3424:	4781                	li	a5,0
    3426:	4625                	li	a2,9
    3428:	2018                	lbu	a4,0(s0)
    342a:	00140593          	addi	a1,s0,1
    342e:	fd070713          	addi	a4,a4,-48
    3432:	06e67463          	bgeu	a2,a4,349a <_svfiprintf_r+0x208>
    3436:	f2f9                	bnez	a3,33fc <_svfiprintf_r+0x16a>
    3438:	200c                	lbu	a1,0(s0)
    343a:	460d                	li	a2,3
    343c:	00002517          	auipc	a0,0x2
    3440:	87850513          	addi	a0,a0,-1928 # 4cb4 <__clz_tab+0x108>
    3444:	29b9                	jal	38a2 <memchr>
    3446:	cd11                	beqz	a0,3462 <_svfiprintf_r+0x1d0>
    3448:	00002797          	auipc	a5,0x2
    344c:	86c78793          	addi	a5,a5,-1940 # 4cb4 <__clz_tab+0x108>
    3450:	8d1d                	sub	a0,a0,a5
    3452:	04000793          	li	a5,64
    3456:	00a797b3          	sll	a5,a5,a0
    345a:	5502                	lw	a0,32(sp)
    345c:	0405                	addi	s0,s0,1
    345e:	8d5d                	or	a0,a0,a5
    3460:	d02a                	sw	a0,32(sp)
    3462:	200c                	lbu	a1,0(s0)
    3464:	4619                	li	a2,6
    3466:	00002517          	auipc	a0,0x2
    346a:	85250513          	addi	a0,a0,-1966 # 4cb8 <__clz_tab+0x10c>
    346e:	00140493          	addi	s1,s0,1
    3472:	02b10c23          	sb	a1,56(sp)
    3476:	2135                	jal	38a2 <memchr>
    3478:	c525                	beqz	a0,34e0 <_svfiprintf_r+0x24e>
    347a:	ffffd797          	auipc	a5,0xffffd
    347e:	b8678793          	addi	a5,a5,-1146 # 0 <_sinit>
    3482:	e795                	bnez	a5,34ae <_svfiprintf_r+0x21c>
    3484:	5702                	lw	a4,32(sp)
    3486:	47f2                	lw	a5,28(sp)
    3488:	10077713          	andi	a4,a4,256
    348c:	cf09                	beqz	a4,34a6 <_svfiprintf_r+0x214>
    348e:	0791                	addi	a5,a5,4
    3490:	ce3e                	sw	a5,28(sp)
    3492:	57d2                	lw	a5,52(sp)
    3494:	97d2                	add	a5,a5,s4
    3496:	da3e                	sw	a5,52(sp)
    3498:	b561                	j	3320 <_svfiprintf_r+0x8e>
    349a:	036787b3          	mul	a5,a5,s6
    349e:	4685                	li	a3,1
    34a0:	842e                	mv	s0,a1
    34a2:	97ba                	add	a5,a5,a4
    34a4:	b751                	j	3428 <_svfiprintf_r+0x196>
    34a6:	079d                	addi	a5,a5,7
    34a8:	9be1                	andi	a5,a5,-8
    34aa:	07a1                	addi	a5,a5,8
    34ac:	b7d5                	j	3490 <_svfiprintf_r+0x1fe>
    34ae:	0878                	addi	a4,sp,28
    34b0:	00000697          	auipc	a3,0x0
    34b4:	d0468693          	addi	a3,a3,-764 # 31b4 <__ssputs_r>
    34b8:	864a                	mv	a2,s2
    34ba:	100c                	addi	a1,sp,32
    34bc:	854e                	mv	a0,s3
    34be:	00000097          	auipc	ra,0x0
    34c2:	000000e7          	jalr	zero # 0 <_sinit>
    34c6:	57fd                	li	a5,-1
    34c8:	8a2a                	mv	s4,a0
    34ca:	fcf514e3          	bne	a0,a5,3492 <_svfiprintf_r+0x200>
    34ce:	00c95783          	lhu	a5,12(s2)
    34d2:	557d                	li	a0,-1
    34d4:	0407f793          	andi	a5,a5,64
    34d8:	e00791e3          	bnez	a5,32da <_svfiprintf_r+0x48>
    34dc:	5552                	lw	a0,52(sp)
    34de:	bbf5                	j	32da <_svfiprintf_r+0x48>
    34e0:	0878                	addi	a4,sp,28
    34e2:	00000697          	auipc	a3,0x0
    34e6:	cd268693          	addi	a3,a3,-814 # 31b4 <__ssputs_r>
    34ea:	864a                	mv	a2,s2
    34ec:	100c                	addi	a1,sp,32
    34ee:	854e                	mv	a0,s3
    34f0:	2a01                	jal	3600 <_printf_i>
    34f2:	bfd1                	j	34c6 <_svfiprintf_r+0x234>

000034f4 <_printf_common>:
    34f4:	7179                	addi	sp,sp,-48
    34f6:	ca56                	sw	s5,20(sp)
    34f8:	499c                	lw	a5,16(a1)
    34fa:	8aba                	mv	s5,a4
    34fc:	4598                	lw	a4,8(a1)
    34fe:	d422                	sw	s0,40(sp)
    3500:	d226                	sw	s1,36(sp)
    3502:	ce4e                	sw	s3,28(sp)
    3504:	cc52                	sw	s4,24(sp)
    3506:	d606                	sw	ra,44(sp)
    3508:	d04a                	sw	s2,32(sp)
    350a:	c85a                	sw	s6,16(sp)
    350c:	c65e                	sw	s7,12(sp)
    350e:	89aa                	mv	s3,a0
    3510:	842e                	mv	s0,a1
    3512:	84b2                	mv	s1,a2
    3514:	8a36                	mv	s4,a3
    3516:	00e7d363          	bge	a5,a4,351c <_printf_common+0x28>
    351a:	87ba                	mv	a5,a4
    351c:	c09c                	sw	a5,0(s1)
    351e:	04344703          	lbu	a4,67(s0)
    3522:	c319                	beqz	a4,3528 <_printf_common+0x34>
    3524:	0785                	addi	a5,a5,1
    3526:	c09c                	sw	a5,0(s1)
    3528:	401c                	lw	a5,0(s0)
    352a:	0207f793          	andi	a5,a5,32
    352e:	c781                	beqz	a5,3536 <_printf_common+0x42>
    3530:	409c                	lw	a5,0(s1)
    3532:	0789                	addi	a5,a5,2
    3534:	c09c                	sw	a5,0(s1)
    3536:	00042903          	lw	s2,0(s0)
    353a:	00697913          	andi	s2,s2,6
    353e:	00091a63          	bnez	s2,3552 <_printf_common+0x5e>
    3542:	01940b13          	addi	s6,s0,25
    3546:	5bfd                	li	s7,-1
    3548:	445c                	lw	a5,12(s0)
    354a:	4098                	lw	a4,0(s1)
    354c:	8f99                	sub	a5,a5,a4
    354e:	04f94c63          	blt	s2,a5,35a6 <_printf_common+0xb2>
    3552:	401c                	lw	a5,0(s0)
    3554:	04344683          	lbu	a3,67(s0)
    3558:	0207f793          	andi	a5,a5,32
    355c:	00d036b3          	snez	a3,a3
    3560:	eba5                	bnez	a5,35d0 <_printf_common+0xdc>
    3562:	04340613          	addi	a2,s0,67
    3566:	85d2                	mv	a1,s4
    3568:	854e                	mv	a0,s3
    356a:	9a82                	jalr	s5
    356c:	57fd                	li	a5,-1
    356e:	04f50363          	beq	a0,a5,35b4 <_printf_common+0xc0>
    3572:	401c                	lw	a5,0(s0)
    3574:	4611                	li	a2,4
    3576:	4098                	lw	a4,0(s1)
    3578:	8b99                	andi	a5,a5,6
    357a:	4454                	lw	a3,12(s0)
    357c:	4481                	li	s1,0
    357e:	00c79763          	bne	a5,a2,358c <_printf_common+0x98>
    3582:	40e684b3          	sub	s1,a3,a4
    3586:	0004d363          	bgez	s1,358c <_printf_common+0x98>
    358a:	4481                	li	s1,0
    358c:	441c                	lw	a5,8(s0)
    358e:	4818                	lw	a4,16(s0)
    3590:	00f75463          	bge	a4,a5,3598 <_printf_common+0xa4>
    3594:	8f99                	sub	a5,a5,a4
    3596:	94be                	add	s1,s1,a5
    3598:	4901                	li	s2,0
    359a:	0469                	addi	s0,s0,26
    359c:	5b7d                	li	s6,-1
    359e:	05249863          	bne	s1,s2,35ee <_printf_common+0xfa>
    35a2:	4501                	li	a0,0
    35a4:	a809                	j	35b6 <_printf_common+0xc2>
    35a6:	4685                	li	a3,1
    35a8:	865a                	mv	a2,s6
    35aa:	85d2                	mv	a1,s4
    35ac:	854e                	mv	a0,s3
    35ae:	9a82                	jalr	s5
    35b0:	01751e63          	bne	a0,s7,35cc <_printf_common+0xd8>
    35b4:	557d                	li	a0,-1
    35b6:	50b2                	lw	ra,44(sp)
    35b8:	5422                	lw	s0,40(sp)
    35ba:	5492                	lw	s1,36(sp)
    35bc:	5902                	lw	s2,32(sp)
    35be:	49f2                	lw	s3,28(sp)
    35c0:	4a62                	lw	s4,24(sp)
    35c2:	4ad2                	lw	s5,20(sp)
    35c4:	4b42                	lw	s6,16(sp)
    35c6:	4bb2                	lw	s7,12(sp)
    35c8:	6145                	addi	sp,sp,48
    35ca:	8082                	ret
    35cc:	0905                	addi	s2,s2,1
    35ce:	bfad                	j	3548 <_printf_common+0x54>
    35d0:	00d40733          	add	a4,s0,a3
    35d4:	03000613          	li	a2,48
    35d8:	04c701a3          	sb	a2,67(a4)
    35dc:	04544703          	lbu	a4,69(s0)
    35e0:	00168793          	addi	a5,a3,1
    35e4:	97a2                	add	a5,a5,s0
    35e6:	0689                	addi	a3,a3,2
    35e8:	04e781a3          	sb	a4,67(a5)
    35ec:	bf9d                	j	3562 <_printf_common+0x6e>
    35ee:	4685                	li	a3,1
    35f0:	8622                	mv	a2,s0
    35f2:	85d2                	mv	a1,s4
    35f4:	854e                	mv	a0,s3
    35f6:	9a82                	jalr	s5
    35f8:	fb650ee3          	beq	a0,s6,35b4 <_printf_common+0xc0>
    35fc:	0905                	addi	s2,s2,1
    35fe:	b745                	j	359e <_printf_common+0xaa>

00003600 <_printf_i>:
    3600:	7179                	addi	sp,sp,-48
    3602:	d422                	sw	s0,40(sp)
    3604:	d226                	sw	s1,36(sp)
    3606:	d04a                	sw	s2,32(sp)
    3608:	ce4e                	sw	s3,28(sp)
    360a:	d606                	sw	ra,44(sp)
    360c:	cc52                	sw	s4,24(sp)
    360e:	ca56                	sw	s5,20(sp)
    3610:	c85a                	sw	s6,16(sp)
    3612:	89b6                	mv	s3,a3
    3614:	2d94                	lbu	a3,24(a1)
    3616:	06900793          	li	a5,105
    361a:	8932                	mv	s2,a2
    361c:	84aa                	mv	s1,a0
    361e:	842e                	mv	s0,a1
    3620:	04358613          	addi	a2,a1,67
    3624:	02f68d63          	beq	a3,a5,365e <_printf_i+0x5e>
    3628:	06d7e263          	bltu	a5,a3,368c <_printf_i+0x8c>
    362c:	05800793          	li	a5,88
    3630:	18f68663          	beq	a3,a5,37bc <_printf_i+0x1bc>
    3634:	00d7ed63          	bltu	a5,a3,364e <_printf_i+0x4e>
    3638:	20068e63          	beqz	a3,3854 <_printf_i+0x254>
    363c:	04300793          	li	a5,67
    3640:	0af68e63          	beq	a3,a5,36fc <_printf_i+0xfc>
    3644:	04240a93          	addi	s5,s0,66
    3648:	04d40123          	sb	a3,66(s0)
    364c:	a0c9                	j	370e <_printf_i+0x10e>
    364e:	06300793          	li	a5,99
    3652:	0af68563          	beq	a3,a5,36fc <_printf_i+0xfc>
    3656:	06400793          	li	a5,100
    365a:	fef695e3          	bne	a3,a5,3644 <_printf_i+0x44>
    365e:	401c                	lw	a5,0(s0)
    3660:	4308                	lw	a0,0(a4)
    3662:	0807f693          	andi	a3,a5,128
    3666:	00450593          	addi	a1,a0,4
    366a:	c6c5                	beqz	a3,3712 <_printf_i+0x112>
    366c:	411c                	lw	a5,0(a0)
    366e:	c30c                	sw	a1,0(a4)
    3670:	0007d863          	bgez	a5,3680 <_printf_i+0x80>
    3674:	02d00713          	li	a4,45
    3678:	40f007b3          	neg	a5,a5
    367c:	04e401a3          	sb	a4,67(s0)
    3680:	00001697          	auipc	a3,0x1
    3684:	64068693          	addi	a3,a3,1600 # 4cc0 <__clz_tab+0x114>
    3688:	4729                	li	a4,10
    368a:	a865                	j	3742 <_printf_i+0x142>
    368c:	07000793          	li	a5,112
    3690:	16f68263          	beq	a3,a5,37f4 <_printf_i+0x1f4>
    3694:	02d7e563          	bltu	a5,a3,36be <_printf_i+0xbe>
    3698:	06e00793          	li	a5,110
    369c:	18f68963          	beq	a3,a5,382e <_printf_i+0x22e>
    36a0:	06f00793          	li	a5,111
    36a4:	faf690e3          	bne	a3,a5,3644 <_printf_i+0x44>
    36a8:	400c                	lw	a1,0(s0)
    36aa:	431c                	lw	a5,0(a4)
    36ac:	0805f813          	andi	a6,a1,128
    36b0:	00478513          	addi	a0,a5,4
    36b4:	06080763          	beqz	a6,3722 <_printf_i+0x122>
    36b8:	c308                	sw	a0,0(a4)
    36ba:	439c                	lw	a5,0(a5)
    36bc:	a885                	j	372c <_printf_i+0x12c>
    36be:	07500793          	li	a5,117
    36c2:	fef683e3          	beq	a3,a5,36a8 <_printf_i+0xa8>
    36c6:	07800793          	li	a5,120
    36ca:	12f68963          	beq	a3,a5,37fc <_printf_i+0x1fc>
    36ce:	07300793          	li	a5,115
    36d2:	f6f699e3          	bne	a3,a5,3644 <_printf_i+0x44>
    36d6:	431c                	lw	a5,0(a4)
    36d8:	41d0                	lw	a2,4(a1)
    36da:	4581                	li	a1,0
    36dc:	00478693          	addi	a3,a5,4
    36e0:	c314                	sw	a3,0(a4)
    36e2:	0007aa83          	lw	s5,0(a5)
    36e6:	8556                	mv	a0,s5
    36e8:	2a6d                	jal	38a2 <memchr>
    36ea:	c501                	beqz	a0,36f2 <_printf_i+0xf2>
    36ec:	41550533          	sub	a0,a0,s5
    36f0:	c048                	sw	a0,4(s0)
    36f2:	405c                	lw	a5,4(s0)
    36f4:	c81c                	sw	a5,16(s0)
    36f6:	040401a3          	sb	zero,67(s0)
    36fa:	a861                	j	3792 <_printf_i+0x192>
    36fc:	431c                	lw	a5,0(a4)
    36fe:	04240a93          	addi	s5,s0,66
    3702:	00478693          	addi	a3,a5,4
    3706:	439c                	lw	a5,0(a5)
    3708:	c314                	sw	a3,0(a4)
    370a:	04f40123          	sb	a5,66(s0)
    370e:	4785                	li	a5,1
    3710:	b7d5                	j	36f4 <_printf_i+0xf4>
    3712:	0407f693          	andi	a3,a5,64
    3716:	411c                	lw	a5,0(a0)
    3718:	c30c                	sw	a1,0(a4)
    371a:	dab9                	beqz	a3,3670 <_printf_i+0x70>
    371c:	07c2                	slli	a5,a5,0x10
    371e:	87c1                	srai	a5,a5,0x10
    3720:	bf81                	j	3670 <_printf_i+0x70>
    3722:	0405f593          	andi	a1,a1,64
    3726:	c308                	sw	a0,0(a4)
    3728:	d9c9                	beqz	a1,36ba <_printf_i+0xba>
    372a:	239e                	lhu	a5,0(a5)
    372c:	06f00713          	li	a4,111
    3730:	0ee68763          	beq	a3,a4,381e <_printf_i+0x21e>
    3734:	00001697          	auipc	a3,0x1
    3738:	58c68693          	addi	a3,a3,1420 # 4cc0 <__clz_tab+0x114>
    373c:	4729                	li	a4,10
    373e:	040401a3          	sb	zero,67(s0)
    3742:	404c                	lw	a1,4(s0)
    3744:	c40c                	sw	a1,8(s0)
    3746:	0005c563          	bltz	a1,3750 <_printf_i+0x150>
    374a:	4008                	lw	a0,0(s0)
    374c:	996d                	andi	a0,a0,-5
    374e:	c008                	sw	a0,0(s0)
    3750:	e399                	bnez	a5,3756 <_printf_i+0x156>
    3752:	8ab2                	mv	s5,a2
    3754:	cd89                	beqz	a1,376e <_printf_i+0x16e>
    3756:	8ab2                	mv	s5,a2
    3758:	02e7f5b3          	remu	a1,a5,a4
    375c:	1afd                	addi	s5,s5,-1
    375e:	95b6                	add	a1,a1,a3
    3760:	218c                	lbu	a1,0(a1)
    3762:	00ba8023          	sb	a1,0(s5)
    3766:	02e7d5b3          	divu	a1,a5,a4
    376a:	0ce7f063          	bgeu	a5,a4,382a <_printf_i+0x22a>
    376e:	47a1                	li	a5,8
    3770:	00f71e63          	bne	a4,a5,378c <_printf_i+0x18c>
    3774:	401c                	lw	a5,0(s0)
    3776:	8b85                	andi	a5,a5,1
    3778:	cb91                	beqz	a5,378c <_printf_i+0x18c>
    377a:	4058                	lw	a4,4(s0)
    377c:	481c                	lw	a5,16(s0)
    377e:	00e7c763          	blt	a5,a4,378c <_printf_i+0x18c>
    3782:	03000793          	li	a5,48
    3786:	fefa8fa3          	sb	a5,-1(s5)
    378a:	1afd                	addi	s5,s5,-1
    378c:	41560633          	sub	a2,a2,s5
    3790:	c810                	sw	a2,16(s0)
    3792:	874e                	mv	a4,s3
    3794:	86ca                	mv	a3,s2
    3796:	0070                	addi	a2,sp,12
    3798:	85a2                	mv	a1,s0
    379a:	8526                	mv	a0,s1
    379c:	d59ff0ef          	jal	ra,34f4 <_printf_common>
    37a0:	5a7d                	li	s4,-1
    37a2:	0b451d63          	bne	a0,s4,385c <_printf_i+0x25c>
    37a6:	557d                	li	a0,-1
    37a8:	50b2                	lw	ra,44(sp)
    37aa:	5422                	lw	s0,40(sp)
    37ac:	5492                	lw	s1,36(sp)
    37ae:	5902                	lw	s2,32(sp)
    37b0:	49f2                	lw	s3,28(sp)
    37b2:	4a62                	lw	s4,24(sp)
    37b4:	4ad2                	lw	s5,20(sp)
    37b6:	4b42                	lw	s6,16(sp)
    37b8:	6145                	addi	sp,sp,48
    37ba:	8082                	ret
    37bc:	04d582a3          	sb	a3,69(a1)
    37c0:	00001697          	auipc	a3,0x1
    37c4:	50068693          	addi	a3,a3,1280 # 4cc0 <__clz_tab+0x114>
    37c8:	400c                	lw	a1,0(s0)
    37ca:	4308                	lw	a0,0(a4)
    37cc:	0805f813          	andi	a6,a1,128
    37d0:	411c                	lw	a5,0(a0)
    37d2:	0511                	addi	a0,a0,4
    37d4:	02080d63          	beqz	a6,380e <_printf_i+0x20e>
    37d8:	c308                	sw	a0,0(a4)
    37da:	0015f713          	andi	a4,a1,1
    37de:	c701                	beqz	a4,37e6 <_printf_i+0x1e6>
    37e0:	0205e593          	ori	a1,a1,32
    37e4:	c00c                	sw	a1,0(s0)
    37e6:	4741                	li	a4,16
    37e8:	fbb9                	bnez	a5,373e <_printf_i+0x13e>
    37ea:	400c                	lw	a1,0(s0)
    37ec:	fdf5f593          	andi	a1,a1,-33
    37f0:	c00c                	sw	a1,0(s0)
    37f2:	b7b1                	j	373e <_printf_i+0x13e>
    37f4:	419c                	lw	a5,0(a1)
    37f6:	0207e793          	ori	a5,a5,32
    37fa:	c19c                	sw	a5,0(a1)
    37fc:	07800793          	li	a5,120
    3800:	04f402a3          	sb	a5,69(s0)
    3804:	00001697          	auipc	a3,0x1
    3808:	4d068693          	addi	a3,a3,1232 # 4cd4 <__clz_tab+0x128>
    380c:	bf75                	j	37c8 <_printf_i+0x1c8>
    380e:	0405f813          	andi	a6,a1,64
    3812:	c308                	sw	a0,0(a4)
    3814:	fc0803e3          	beqz	a6,37da <_printf_i+0x1da>
    3818:	07c2                	slli	a5,a5,0x10
    381a:	83c1                	srli	a5,a5,0x10
    381c:	bf7d                	j	37da <_printf_i+0x1da>
    381e:	00001697          	auipc	a3,0x1
    3822:	4a268693          	addi	a3,a3,1186 # 4cc0 <__clz_tab+0x114>
    3826:	4721                	li	a4,8
    3828:	bf19                	j	373e <_printf_i+0x13e>
    382a:	87ae                	mv	a5,a1
    382c:	b735                	j	3758 <_printf_i+0x158>
    382e:	4194                	lw	a3,0(a1)
    3830:	431c                	lw	a5,0(a4)
    3832:	49cc                	lw	a1,20(a1)
    3834:	0806f813          	andi	a6,a3,128
    3838:	00478513          	addi	a0,a5,4
    383c:	00080663          	beqz	a6,3848 <_printf_i+0x248>
    3840:	c308                	sw	a0,0(a4)
    3842:	439c                	lw	a5,0(a5)
    3844:	c38c                	sw	a1,0(a5)
    3846:	a039                	j	3854 <_printf_i+0x254>
    3848:	c308                	sw	a0,0(a4)
    384a:	0406f693          	andi	a3,a3,64
    384e:	439c                	lw	a5,0(a5)
    3850:	daf5                	beqz	a3,3844 <_printf_i+0x244>
    3852:	a38e                	sh	a1,0(a5)
    3854:	00042823          	sw	zero,16(s0)
    3858:	8ab2                	mv	s5,a2
    385a:	bf25                	j	3792 <_printf_i+0x192>
    385c:	4814                	lw	a3,16(s0)
    385e:	8656                	mv	a2,s5
    3860:	85ca                	mv	a1,s2
    3862:	8526                	mv	a0,s1
    3864:	9982                	jalr	s3
    3866:	f54500e3          	beq	a0,s4,37a6 <_printf_i+0x1a6>
    386a:	401c                	lw	a5,0(s0)
    386c:	8b89                	andi	a5,a5,2
    386e:	e78d                	bnez	a5,3898 <_printf_i+0x298>
    3870:	47b2                	lw	a5,12(sp)
    3872:	4448                	lw	a0,12(s0)
    3874:	f2f55ae3          	bge	a0,a5,37a8 <_printf_i+0x1a8>
    3878:	853e                	mv	a0,a5
    387a:	b73d                	j	37a8 <_printf_i+0x1a8>
    387c:	4685                	li	a3,1
    387e:	8656                	mv	a2,s5
    3880:	85ca                	mv	a1,s2
    3882:	8526                	mv	a0,s1
    3884:	9982                	jalr	s3
    3886:	f36500e3          	beq	a0,s6,37a6 <_printf_i+0x1a6>
    388a:	0a05                	addi	s4,s4,1
    388c:	445c                	lw	a5,12(s0)
    388e:	4732                	lw	a4,12(sp)
    3890:	8f99                	sub	a5,a5,a4
    3892:	fefa45e3          	blt	s4,a5,387c <_printf_i+0x27c>
    3896:	bfe9                	j	3870 <_printf_i+0x270>
    3898:	4a01                	li	s4,0
    389a:	01940a93          	addi	s5,s0,25
    389e:	5b7d                	li	s6,-1
    38a0:	b7f5                	j	388c <_printf_i+0x28c>

000038a2 <memchr>:
    38a2:	0ff5f593          	andi	a1,a1,255
    38a6:	962a                	add	a2,a2,a0
    38a8:	00c51463          	bne	a0,a2,38b0 <memchr+0xe>
    38ac:	4501                	li	a0,0
    38ae:	8082                	ret
    38b0:	211c                	lbu	a5,0(a0)
    38b2:	feb78ee3          	beq	a5,a1,38ae <memchr+0xc>
    38b6:	0505                	addi	a0,a0,1
    38b8:	bfc5                	j	38a8 <memchr+0x6>

000038ba <memcpy>:
    38ba:	00a5c7b3          	xor	a5,a1,a0
    38be:	8b8d                	andi	a5,a5,3
    38c0:	00c50733          	add	a4,a0,a2
    38c4:	e781                	bnez	a5,38cc <memcpy+0x12>
    38c6:	478d                	li	a5,3
    38c8:	00c7ed63          	bltu	a5,a2,38e2 <memcpy+0x28>
    38cc:	87aa                	mv	a5,a0
    38ce:	08e57e63          	bgeu	a0,a4,396a <memcpy+0xb0>
    38d2:	2194                	lbu	a3,0(a1)
    38d4:	0785                	addi	a5,a5,1
    38d6:	0585                	addi	a1,a1,1
    38d8:	fed78fa3          	sb	a3,-1(a5)
    38dc:	fee7ebe3          	bltu	a5,a4,38d2 <memcpy+0x18>
    38e0:	8082                	ret
    38e2:	00357693          	andi	a3,a0,3
    38e6:	87aa                	mv	a5,a0
    38e8:	ca89                	beqz	a3,38fa <memcpy+0x40>
    38ea:	2194                	lbu	a3,0(a1)
    38ec:	0785                	addi	a5,a5,1
    38ee:	0585                	addi	a1,a1,1
    38f0:	fed78fa3          	sb	a3,-1(a5)
    38f4:	0037f693          	andi	a3,a5,3
    38f8:	bfc5                	j	38e8 <memcpy+0x2e>
    38fa:	ffc77693          	andi	a3,a4,-4
    38fe:	fe068613          	addi	a2,a3,-32
    3902:	06c7f063          	bgeu	a5,a2,3962 <memcpy+0xa8>
    3906:	0005a383          	lw	t2,0(a1)
    390a:	0045a283          	lw	t0,4(a1)
    390e:	0085af83          	lw	t6,8(a1)
    3912:	00c5af03          	lw	t5,12(a1)
    3916:	0105ae83          	lw	t4,16(a1)
    391a:	0145ae03          	lw	t3,20(a1)
    391e:	0185a303          	lw	t1,24(a1)
    3922:	01c5a883          	lw	a7,28(a1)
    3926:	02458593          	addi	a1,a1,36
    392a:	0077a023          	sw	t2,0(a5)
    392e:	ffc5a803          	lw	a6,-4(a1)
    3932:	0057a223          	sw	t0,4(a5)
    3936:	01f7a423          	sw	t6,8(a5)
    393a:	01e7a623          	sw	t5,12(a5)
    393e:	01d7a823          	sw	t4,16(a5)
    3942:	01c7aa23          	sw	t3,20(a5)
    3946:	0067ac23          	sw	t1,24(a5)
    394a:	0117ae23          	sw	a7,28(a5)
    394e:	02478793          	addi	a5,a5,36
    3952:	ff07ae23          	sw	a6,-4(a5)
    3956:	b775                	j	3902 <memcpy+0x48>
    3958:	4190                	lw	a2,0(a1)
    395a:	0791                	addi	a5,a5,4
    395c:	0591                	addi	a1,a1,4
    395e:	fec7ae23          	sw	a2,-4(a5)
    3962:	fed7ebe3          	bltu	a5,a3,3958 <memcpy+0x9e>
    3966:	f6e7e6e3          	bltu	a5,a4,38d2 <memcpy+0x18>
    396a:	8082                	ret

0000396c <_realloc_r>:
    396c:	e581                	bnez	a1,3974 <_realloc_r+0x8>
    396e:	85b2                	mv	a1,a2
    3970:	efcff06f          	j	306c <_malloc_r>
    3974:	1101                	addi	sp,sp,-32
    3976:	cc22                	sw	s0,24(sp)
    3978:	ce06                	sw	ra,28(sp)
    397a:	ca26                	sw	s1,20(sp)
    397c:	c84a                	sw	s2,16(sp)
    397e:	c64e                	sw	s3,12(sp)
    3980:	8432                	mv	s0,a2
    3982:	ee01                	bnez	a2,399a <_realloc_r+0x2e>
    3984:	e44ff0ef          	jal	ra,2fc8 <_free_r>
    3988:	4901                	li	s2,0
    398a:	40f2                	lw	ra,28(sp)
    398c:	4462                	lw	s0,24(sp)
    398e:	854a                	mv	a0,s2
    3990:	44d2                	lw	s1,20(sp)
    3992:	4942                	lw	s2,16(sp)
    3994:	49b2                	lw	s3,12(sp)
    3996:	6105                	addi	sp,sp,32
    3998:	8082                	ret
    399a:	84ae                	mv	s1,a1
    399c:	89aa                	mv	s3,a0
    399e:	2015                	jal	39c2 <_malloc_usable_size_r>
    39a0:	8926                	mv	s2,s1
    39a2:	fe8574e3          	bgeu	a0,s0,398a <_realloc_r+0x1e>
    39a6:	85a2                	mv	a1,s0
    39a8:	854e                	mv	a0,s3
    39aa:	ec2ff0ef          	jal	ra,306c <_malloc_r>
    39ae:	892a                	mv	s2,a0
    39b0:	dd69                	beqz	a0,398a <_realloc_r+0x1e>
    39b2:	85a6                	mv	a1,s1
    39b4:	8622                	mv	a2,s0
    39b6:	3711                	jal	38ba <memcpy>
    39b8:	85a6                	mv	a1,s1
    39ba:	854e                	mv	a0,s3
    39bc:	e0cff0ef          	jal	ra,2fc8 <_free_r>
    39c0:	b7e9                	j	398a <_realloc_r+0x1e>

000039c2 <_malloc_usable_size_r>:
    39c2:	ffc5a783          	lw	a5,-4(a1)
    39c6:	ffc78513          	addi	a0,a5,-4
    39ca:	0007d563          	bgez	a5,39d4 <_malloc_usable_size_r+0x12>
    39ce:	95aa                	add	a1,a1,a0
    39d0:	419c                	lw	a5,0(a1)
    39d2:	953e                	add	a0,a0,a5
    39d4:	8082                	ret

000039d6 <_sbrk>:
    39d6:	82418793          	addi	a5,gp,-2012 # 200000a4 <heap_end.1518>
    39da:	439c                	lw	a5,0(a5)
    39dc:	c791                	beqz	a5,39e8 <_sbrk+0x12>
    39de:	953e                	add	a0,a0,a5
    39e0:	82a1a223          	sw	a0,-2012(gp) # 200000a4 <heap_end.1518>
    39e4:	853e                	mv	a0,a5
    39e6:	8082                	ret
    39e8:	94c18793          	addi	a5,gp,-1716 # 200001cc <_ebss>
    39ec:	953e                	add	a0,a0,a5
    39ee:	82a1a223          	sw	a0,-2012(gp) # 200000a4 <heap_end.1518>
    39f2:	853e                	mv	a0,a5
    39f4:	8082                	ret
	...

000039f8 <font_16x24>:
	...
    3a28:	f800 fefc 0000 0000 0000 0000 0000 0000     ................
    3a38:	7f00 ffff 0000 0000 0000 0000 0000 0000     ................
    3a48:	f800 f9f8 0000 0000 0000 0000 0000 0000     ................
    3a58:	fe00 fefe fefe 02fe 0000 0000 0000 0000     ................
	...
    3a8c:	0000 3ec0 0000 fec0 067e 0000 0000 0101     ...>....~.......
    3a9c:	f901 0fff 0101 0ff1 0101 0101 0100 e101     ................
    3aac:	3fff 0101 3fc1 0101 0101 0000 f000 f4f8     .?...?..........
    3abc:	0e0e 0f0f 0e0f 0e0e 0002 0000 1f00 3f17     ...............?
    3acc:	3838 3838 3838 d038 e0d0 0000 0000 c080     8888888.........
    3adc:	e0e0 a060 e060 5fe0 1f3f 0000 f800 f6f8     ..`.`.._?.......
    3aec:	0e0e 0e0e 0e0e f8f4 00f0 0000 0300 0f07     ................
    3afc:	1c1c 1c1c 1c1c 870b c0c3 1f44 0000 0000     ..........D.....
    3b0c:	0000 e080 7cf0 0f3e 0107 0000 f000 f4f8     .....|>.........
    3b1c:	0e0e 0e0e 0e0e 840e 80c0 0000 ef00 c7c7     ................
    3b2c:	0000 1810 3838 d738 d7ef 3838 1f00 5f3f     ....888...88..?_
    3b3c:	e0e0 e0e0 e0e0 5fe0 1f3f 0000 fe00 fefe     ......._?.......
	...
    3b78:	f000 fefc 0e0e 0006 0000 0000 0000 0000     ................
    3b88:	ef00 c7c7 0000 0000 0000 0000 0000 0000     ................
    3b98:	1f00 ff7f e0e0 00c0 0000 0000 0000 0000     ................
    3ba8:	0e02 0e0e f8f4 00f0 0000 0000 0000 0000     ................
    3bb8:	0000 0000 c7c7 00ef 0000 0000 0000 0000     ................
    3bc8:	e080 e0e0 3f5f 001f 0000 0000 0000 0000     ...._?..........
    3bd8:	8000 c080 7ebe c0fe 80c0 0000 0000 0000     .....~..........
    3be8:	0703 0103 0001 0101 0303 0003 0000 0000     ................
	...
    3c0c:	0000 c080 00c0 0000 0000 0000 3800 3838     .............888
    3c1c:	1838 f7e3 38fb 3838 0818 0000 0000 0000     8....888........
    3c2c:	0000 0707 0003 0000 0000 0000 0000 0000     ................
	...
    3c58:	e000 f8f8 0018 0000 0000 0000 0000 0000     ................
	...
    3c78:	c000 c0c0 c0c0 c0c0 0040 0000 0000 0000     ........@.......
    3c88:	0101 0101 0101 0101 0000 0000 0000 0000     ................
	...
    3cb8:	f8f8 00f8 0000 0000 0000 0000 0000 0000     ................
	...
    3cd0:	8000 f0c0 3efc 061e 0000 0000 c000 c0c0     .....>..........
    3ce0:	1f46 030f 0000 0000 e0c0 7ef8 0f1f 0003     F..........~....
	...
    3cf8:	f000 f4f8 0e0e 0e0e 0e0e fc0e f8fc 0000     ................
    3d08:	ff00 e7e7 0000 0000 0000 c300 e7c3 0000     ................
    3d18:	0f00 4f1f e0e0 e0e0 e0e0 5fe0 1f3f 0000     ...O......._?...
    3d28:	0000 0000 0000 fcf8 00fe 0000 0000 0000     ................
    3d38:	0000 0000 0000 c7c7 00ef 0000 0000 0000     ................
    3d48:	0000 0000 0000 7f3f 00ff 0000 0000 0000     ......?.........
    3d58:	0800 0e0c 0e0e 0e0e 0e0e f40e f0f8 0000     ................
    3d68:	e000 f8d0 3838 3838 3838 1738 0f17 0000     ....8888888.....
    3d78:	1f00 ff7f e0e0 e0e0 e0e0 e0e0 80c0 0000     ................
    3d88:	0200 0e06 0e0e 0e0e 0e0e f40e f0f8 0000     ................
    3d98:	1000 3810 3838 3838 3838 d738 efd7 0000     ...88888888.....
    3da8:	8000 e0c0 e0e0 e0e0 e0e0 5fe0 1f3f 0000     ..........._?...
    3db8:	fe00 f8fc 0000 0000 0000 f800 fefc 0000     ................
    3dc8:	0f00 3f17 3838 3838 3838 d738 efd7 0000     ...?8888888.....
	...
    3de0:	0000 3f00 ff7f 0000 f000 fefc 0e0e 0e0e     ...?............
    3df0:	0e0e 060e 0002 0000 0f00 3f17 3838 3838     ...........?8888
    3e00:	3838 d038 e0d0 0000 8000 e0c0 e0e0 e0e0     888.............
    3e10:	e0e0 5fe0 1f3f 0000 f000 fefc 0e0e 0e0e     ..._?...........
    3e20:	0e0e 060e 0002 0000 ef00 ffd7 3838 3838     ............8888
    3e30:	3838 d038 e0d0 0000 1f00 5f3f e0e0 e0e0     888.......?_....
    3e40:	e0e0 5fe0 1f3f 0000 0602 0e0e 0e0e 0e0e     ..._?...........
    3e50:	060e f8f2 00fc 0000 0000 0000 0000 0000     ................
    3e60:	0000 c7c7 00ef 0000 0000 0000 0000 0000     ................
    3e70:	0000 7f3f 00ff 0000 f000 f4f8 0e0e 0e0e     ..?.............
    3e80:	0e0e fc0e f8fc 0000 ff00 fff7 3838 3838     ............8888
    3e90:	3838 db38 e7c3 0000 0f00 4f1f e0e0 e0e0     888........O....
    3ea0:	e0e0 5fe0 1f3f 0000 f000 f4f8 0e0e 0e0e     ..._?...........
    3eb0:	0e0e f40e f0f8 0000 0f00 3f17 3838 3838     ...........?8888
    3ec0:	3838 d738 efd7 0000 0000 e080 e0e0 e0e0     888.............
    3ed0:	e0e0 5fe0 1f3f 0000 0000 0000 0000 0000     ..._?...........
	...
    3ee8:	3e00 3e3e 0000 0000 0000 0000 0000 0000     .>>>............
    3ef8:	f800 f8f8 0000 0000 0000 0000 0000 0000     ................
	...
    3f18:	0000 3e3e 003e 0000 0000 0000 0000 0000     ..>>>...........
    3f28:	e000 f8f8 0018 0000 0000 0000 0000 0000     ................
	...
    3f40:	8000 c080 e0c0 0000 1000 3810 7c7c cefe     ...........8||..
    3f50:	878f 0303 0101 0000 0000 0000 0000 0000     ................
    3f60:	0301 0703 0c06 0000 0000 0000 0000 0000     ................
	...
    3f78:	0000 eeee eeee eeee eeee eeee 66ee 0000     .............f..
	...
    3f98:	e0e0 c0c0 0080 0000 0000 0000 0000 0000     ................
    3fa8:	0100 0301 8703 cecf 7cfe 387c 1010 0000     .........||8....
    3fb8:	0e00 0706 0103 0001 0000 0000 0000 0000     ................
    3fc8:	0e0e 0e0e 0e0e 0e0e f8f4 00f0 0000 0000     ................
    3fd8:	0000 e810 98d8 3838 1717 000f 0000 0000     ......88........
    3fe8:	0000 f900 f9f9 0000 0000 0000 0000 0000     ................
    3ff8:	0000 8000 60c0 1830 840c 62c4 2222 c222     .....`0....b""".
    4008:	0000 fffe 0001 fc00 07ff 0000 0000 ffc0     ................
    4018:	0000 0300 1c0f 7038 4663 84c4 8284 8783     ......8pcF......
    4028:	f800 e6f2 0e0e 0e0e 0e0e f206 fcf8 0000     ................
    4038:	ff00 fff7 3838 3838 3838 db38 e7c3 0000     ....8888888.....
    4048:	ff00 3f7f 0000 0000 0000 3f00 ff7f 0000     ...?.......?....
    4058:	f800 e6f2 0e0e 0e0e 0e0e fc0e f8fc 0000     ................
    4068:	ff00 fff7 3838 3838 3838 db38 e7c3 0000     ....8888888.....
    4078:	7f00 dfbf e0c0 e0e0 e0e0 ffe0 1fff 0000     ................
    4088:	f000 fefc 0e0e 0e0e 0e0e 060e 0002 0000     ................
    4098:	ef00 c7c7 0000 0000 0000 0000 0000 0000     ................
    40a8:	1f00 ff7f e0e0 e0e0 e0e0 c0e0 0080 0000     ................
    40b8:	f800 e6f2 0e0e 0e0e 0e0e fc0e f8fc 0000     ................
    40c8:	ff00 e7e7 0000 0000 0000 c300 e7c3 0000     ................
    40d8:	7f00 dfbf e0c0 e0e0 e0e0 ffe0 1fff 0000     ................
    40e8:	fc00 f6fa 0e0e 0e0e 0e0e 0e0e 0206 0000     ................
    40f8:	ef00 d7f7 3838 3838 3838 3838 1010 0000     ....88888888....
    4108:	7f00 dfbf e0e0 e0e0 e0e0 e0e0 80c0 0000     ................
    4118:	fc00 f6fa 0e0e 0e0e 0e0e 0e0e 0206 0000     ................
    4128:	ef00 d7d7 3838 3838 3838 3838 1010 0000     ....88888888....
    4138:	ff00 3f7f 0000 0000 0000 0000 0000 0000     ...?............
    4148:	f000 fefc 0e0e 0e0e 0e0e 060e 0002 0000     ................
    4158:	ef00 c7c7 0000 3810 3838 d038 e0d0 0000     .......8888.....
    4168:	1f00 5f3f e0e0 e0e0 e0e0 5fe0 1f3f 0000     ..?_......._?...
    4178:	fe00 f8fc 0000 0000 0000 f800 fefc 0000     ................
    4188:	ff00 fff7 3838 3838 3838 db38 e7c3 0000     ....8888888.....
    4198:	ff00 3f7f 0000 0000 0000 3f00 ff7f 0000     ...?.......?....
    41a8:	f800 fefc 0000 0000 0000 0000 0000 0000     ................
    41b8:	c700 efc7 0000 0000 0000 0000 0000 0000     ................
    41c8:	3f00 ff7f 0000 0000 0000 0000 0000 0000     .?..............
	...
    41e0:	0000 f800 fefc 0000 f000 e0e0 0000 0000     ................
    41f0:	0000 c300 e7c3 0000 3f00 cf9f e0e0 e0e0     .........?......
    4200:	e0e0 dfc0 7fbf 0000 fe00 f8fc 8000 e0c0     ................
    4210:	78f0 1e3c 060e 0000 ef00 ffd7 3b39 393b     .x<.........9;;9
    4220:	3838 d038 e0d0 0000 ff00 3f7f 0000 0000     888........?....
    4230:	0000 3f00 ff7f 0000 fe00 f8fc 0000 0000     ...?............
	...
    4248:	ef00 c7e7 0000 0000 0000 c000 e0c0 0000     ................
    4258:	3f00 cf9f e0e0 e0e0 e0e0 dfc0 7fbf 0000     .?..............
    4268:	fc00 f2f8 0e06 0e0e 0e0e f60e f6fa 0e0e     ................
    4278:	ff00 e7e7 0000 0000 0000 e300 e7f7 0000     ................
    4288:	ff00 3f7f 0000 0000 0000 3f00 3fff 0000     ...?.......?.?..
    4298:	f800 e6f2 0e0e 0e0e 0e0e f206 fcf8 0000     ................
    42a8:	ff00 e7e7 0000 0000 0000 c300 e7c3 0000     ................
    42b8:	ff00 3f7f 0000 0000 0000 3f00 ff7f 0000     ...?.......?....
    42c8:	f000 f4f8 0e0e 0e0e 0e0e fc0e f8fc 0000     ................
    42d8:	ff00 e7e7 0000 0000 0000 c300 e7c3 0000     ................
    42e8:	0f00 4f1f e0e0 e0e0 e0e0 5fe0 1f3f 0000     ...O......._?...
    42f8:	f800 e6f2 0e0e 0e0e 0e0e fc0e f8fc 0000     ................
    4308:	ff00 fff7 3838 3838 3838 1b38 070b 0000     ....8888888.....
    4318:	ff00 3f7f 0000 0000 0000 0000 0000 0000     ...?............
    4328:	f000 f4f8 0e0e 0e0e 0e0e f40e f0f8 0000     ................
    4338:	ef00 c7c7 0000 0000 0000 c700 efc7 0000     ................
    4348:	1f00 5f3f e0e0 e0f0 6060 ffe0 9fff 0000     ..?_....``......
    4358:	f800 e6f2 0e0e 0e0e 0e0e fc0e f8fc 0000     ................
    4368:	ff00 fff7 3838 3838 f878 9bf8 070b 0000     ....8888x.......
    4378:	7f00 1f3f 0000 0000 0300 1f0f 383e 8060     ..?.........>8`.
    4388:	f000 fefc 0e0e 0e0e 0e0e 060e 0002 0000     ................
    4398:	0f00 3f17 3838 3838 3838 d038 e0d0 0000     ...?8888888.....
    43a8:	8000 e0c0 e0e0 e0e0 e0e0 5fe0 1f3f 0000     ..........._?...
    43b8:	0602 0e0e f60e f6fa 0e0e 060e 0002 0000     ................
    43c8:	0000 0000 e700 e7ff 0000 0000 0000 0000     ................
    43d8:	0000 0000 7f00 7fff 0000 0000 0000 0000     ................
    43e8:	fe00 f8fc 0000 0000 0000 f800 fefc 0000     ................
    43f8:	ff00 e7e7 0000 0000 0000 c300 e7c3 0000     ................
    4408:	0f00 4f1f e0e0 e0e0 e0e0 5fe0 1f3f 0000     ...O......._?...
    4418:	fc00 f0f8 0000 0000 0000 f800 fefc 0000     ................
    4428:	1f00 e777 c0e0 0000 8000 e7e0 0f67 0000     ..w.........g...
    4438:	0000 0100 1f07 007f 1f7e 0107 0000 0000     ........~.......
    4448:	fe00 f8fc 0000 0000 0000 fc00 fcfe 0000     ................
    4458:	ef00 c7c7 0000 0000 0000 c700 c7ef 0000     ................
    4468:	1f00 ff7f e0e0 e0e0 e0e0 dfe0 dfbf e0e0     ................
    4478:	7e1e f0fc 00c0 c000 fcf0 1e7e 0000 0000     .~........~.....
    4488:	0000 c701 03ef efef 01c7 0000 0000 0000     ................
    4498:	fcf0 0f3f 0103 0701 3f0f f0fc 0000 0000     ..?......?......
    44a8:	fe00 f8fc 0000 0000 0000 f800 fefc 0000     ................
    44b8:	1f00 3f17 3838 b8b8 38b8 1738 0f17 0000     ...?88...88.....
    44c8:	0000 0000 0000 ff7f 007f 0000 0000 0000     ................
    44d8:	0200 0e06 0e0e 8e0e feee 1e7e 0006 0000     ..........~.....
    44e8:	0000 0000 e0c0 27e0 030f 0000 0000 0000     .......'........
    44f8:	f080 7ffc e7df e0e1 e0e0 80c0 0000 0000     ................

00004508 <font_6x8>:
	...
    4510:	2f00 0000 0000 0007 0007 1400 147f 147f     ./..............
    4520:	2400 7f2a 122a 6200 0864 2313 3600 5549     .$*.*..bd..#.6IU
    4530:	5022 0000 0305 0000 0000 221c 0041 0000     "P........."A...
    4540:	2241 001c 1400 3e08 1408 0800 3e08 0808     A".....>.....>..
    4550:	0000 a000 0060 0800 0808 0808 0000 6060     ....`.........``
    4560:	0000 2000 0810 0204 3e00 4951 3e45 0000     ... .....>QIE>..
    4570:	7f42 0040 4200 5161 4649 2100 4541 314b     B.@..BaQIF.!AEK1
    4580:	1800 1214 107f 2700 4545 3945 3c00 494a     .......'EEE9.<JI
    4590:	3049 0100 0971 0305 3600 4949 3649 0600     I0..q....6III6..
    45a0:	4949 1e29 0000 3636 0000 0000 3656 0000     II)...66....V6..
    45b0:	0800 2214 0041 1400 1414 1414 0000 2241     ..."A.........A"
    45c0:	0814 0200 5101 0609 3200 5949 3e51 7c00     .....Q...2IYQ>.|
    45d0:	1112 7c12 7f00 4949 3649 3e00 4141 2241     ...|..III6.>AAA"
    45e0:	7f00 4141 1c22 7f00 4949 4149 7f00 0909     ..AA"...IIIA....
    45f0:	0109 3e00 4941 7a49 7f00 0808 7f08 0000     ...>AIIz........
    4600:	7f41 0041 2000 4140 013f 7f00 1408 4122     A.A.. @A?....."A
    4610:	7f00 4040 4040 7f00 0c02 7f02 7f00 0804     ..@@@@..........
    4620:	7f10 3e00 4141 3e41 7f00 0909 0609 3e00     ...>AAA>.......>
    4630:	5141 5e21 7f00 1909 4629 4600 4949 3149     AQ!^....)F.FIII1
    4640:	0100 7f01 0101 3f00 4040 3f40 1f00 4020     .......?@@@?.. @
    4650:	1f20 3f00 3840 3f40 6300 0814 6314 0700      ..?@8@?.c...c..
    4660:	7008 0708 6100 4951 4345 0000 417f 0041     .p...aQIEC...AA.
    4670:	5500 552a 552a 0000 4141 007f 0400 0102     .U*U*U..AA......
    4680:	0402 4000 4040 4040 0000 0201 0004 2000     ...@@@@@....... 
    4690:	5454 7854 7f00 4448 3844 3800 4444 2044     TTTx..HDD8.8DDD 
    46a0:	3800 4444 7f48 3800 5454 1854 0800 097e     .8DDH..8TTT...~.
    46b0:	0201 1800 a4a4 7ca4 7f00 0408 7804 0000     .......|.....x..
    46c0:	7d44 0040 4000 8480 007d 7f00 2810 0044     D}@..@..}....(D.
    46d0:	0000 7f41 0040 7c00 1804 7804 7c00 0408     ..A.@..|...x.|..
    46e0:	7804 3800 4444 3844 fc00 2424 1824 1800     .x.8DDD8..$$$...
    46f0:	2424 fc18 7c00 0408 0804 4800 5454 2054     $$...|.....HTTT 
    4700:	0400 443f 2040 3c00 4040 7c20 1c00 4020     ..?D@ .<@@ |.. @
    4710:	1c20 3c00 3040 3c40 4400 1028 4428 1c00      ..<@0@<.D(.(D..
    4720:	a0a0 7ca0 4400 5464 444c 1414 1414 1414     ...|.DdTLD......

00004730 <font_8x8>:
	...
    4738:	0000 5f06 065f 0000 0300 0003 0303 0000     ...__...........
    4748:	7f14 147f 7f7f 0014 2e24 6b6b 123a 0000     ........$.kk:...
    4758:	6646 1830 660c 0062 7a30 5d4f 7a37 0048     Ff0..fb.0zO]7zH.
    4768:	0704 0003 0000 0000 1c00 633e 0041 0000     ..........>cA...
    4778:	4100 3e63 001c 0000 2a08 1c3e 3e1c 082a     .Ac>.....*>..>*.
    4788:	0808 3e3e 0808 0000 8000 60e0 0000 0000     ..>>.......`....
    4798:	0808 0808 0808 0000 0000 6060 0000 0000     ..........``....
    47a8:	3060 0c18 0306 0001 7f3e 5971 7f4d 003e     `0......>.qYM.>.
    47b8:	4240 7f7f 4040 0000 7362 4959 666f 0000     @B..@@..bsYIof..
    47c8:	6322 4949 367f 0000 1c18 5316 7f7f 0050     "cII.6.....S..P.
    47d8:	6727 4545 397d 0000 7e3c 494b 3079 0000     'gEE}9..<~KIy0..
    47e8:	0303 7971 070f 0000 7f36 4949 367f 0000     ..qy....6.II.6..
    47f8:	4f06 6949 1e3f 0000 0000 6666 0000 0000     .OIi?.....ff....
    4808:	8000 66e6 0000 0000 1c08 6336 0041 0000     ...f......6cA...
    4818:	2424 2424 2424 0000 4100 3663 081c 0000     $$$$$$...Ac6....
    4828:	0302 5951 060f 0000 7f3e 5d41 1f5d 001e     ..QY....>.A]]...
    4838:	7e7c 1313 7c7e 0000 7f41 497f 7f49 0036     |~..~|..A..II.6.
    4848:	3e1c 4163 6341 0022 7f41 417f 3e63 001c     .>cAAc".A..Ac>..
    4858:	7f41 497f 415d 0063 7f41 497f 011d 0003     A..I]Ac.A..I....
    4868:	3e1c 4163 7351 0072 7f7f 0808 7f7f 0000     .>cAQsr.........
    4878:	4100 7f7f 0041 0000 7030 4140 3f7f 0001     .A..A...0p@A.?..
    4888:	7f41 087f 771c 0063 7f41 417f 6040 0070     A....wc.A..A@`p.
    4898:	7f7f 1c0e 7f0e 007f 7f7f 0c06 7f18 007f     ................
    48a8:	3e1c 4163 3e63 001c 7f41 497f 0f09 0006     .>cAc>..A..I....
    48b8:	3f1e 7121 5e7f 0000 7f41 097f 7f19 0066     .?!q.^..A.....f.
    48c8:	6f26 594d 3273 0000 4103 7f7f 0341 0000     &oMYs2...A..A...
    48d8:	7f7f 4040 7f7f 0000 3f1f 6060 1f3f 0000     ..@@.....?``?...
    48e8:	7f7f 1830 7f30 007f 6743 183c 673c 0043     ..0.0...Cg<.<gC.
    48f8:	4f07 7878 074f 0000 6347 5971 674d 0073     .OxxO...GcqYMgs.
    4908:	7f00 417f 0041 0000 0301 0c06 3018 0060     ...AA........0`.
    4918:	4100 7f41 007f 0000 0c08 0306 0c06 0008     .AA.............
    4928:	8080 8080 8080 8080 0000 0703 0004 0000     ................
    4938:	7420 5454 783c 0040 7f41 483f 7848 0030      tTT<x@.A.?HHx0.
    4948:	7c38 4444 286c 0000 7830 4948 7f3f 0040     8|DDl(..0xHI?.@.
    4958:	7c38 5454 185c 0000 7e48 497f 0203 0000     8|TT\...H~.I....
    4968:	bc98 a4a4 7cf8 0004 7f41 087f 7c04 0078     .....|..A....|x.
    4978:	4400 7d7d 0040 0000 e060 8080 7dfd 0000     .D}}@...`....}..
    4988:	7f41 107f 6c38 0044 4100 7f7f 0040 0000     A...8lD..A..@...
    4998:	7c7c 3818 7c1c 0078 7c7c 0404 787c 0000     ||.8.|x.||..|x..
    49a8:	7c38 4444 387c 0000 fc84 a4f8 3c24 0018     8|DD|8......$<..
    49b8:	3c18 a424 fcf8 0084 7c44 4c78 1c04 0018     .<$.....D|xL....
    49c8:	5c48 5454 2474 0000 0400 7f3e 2444 0000     H\TTt$....>.D$..
    49d8:	7c3c 4040 7c3c 0040 3c1c 6060 1c3c 0000     <|@@<|@..<``<...
    49e8:	7c3c 3870 7c70 003c 6c44 1038 6c38 0044     <|p8p|<.Dl8.8lD.
    49f8:	bc9c a0a0 7cfc 0000 644c 5c74 644c 0000     .....|..Ldt\Ld..
    4a08:	0808 773e 4141 0000 0000 7700 0077 0000     ..>wAA.....ww...
    4a18:	4141 3e77 0808 0000 0302 0301 0302 0001     AAw>............
	...
    4a30:	0000 44fa 7660 3dcf 851f 51eb 1eb8 4041     ...D`v.=...Q..A@
    4a40:	fffe 4aff 0000 42a0 0000 428a 147b 3f8e     ...J...B...B{..?
    4a50:	0000 41a0 cccd c2c7 f99a 4479 6666 411e     ...A......yDff.A
    4a60:	6666 c11e cccd 42c7 0000 c2c6 c000 4479     ff.....B......yD
    4a70:	0000 4120 0000 3f80 794e 5361 6d61 2061     .. A...?NyaSama 
    4a80:	6353 6c61 0065 0000 3176 302e 0000 0000     Scale...v1.0....
    4a90:	4f4c 4142 0054 0000 3425 6d64 0056 0000     LOBAT...%4dmV...
    4aa0:	454e 5458 0000 0000 3325 2e64 3125 0064     NEXT....%3d.%1d.
    4ab0:	455a 4f52 0000 0000 3225 2e64 3125 2064     ZERO....%2d.%1d 
    4ac0:	3125 2e64 3125 0064 4552 4441 0059 0000     %1d.%1d.READY...
    4ad0:	3125 3a64 3025 6432 2520 6433 0000 0000     %1d:%02d %3d....
    4ae0:	3125 2e64 3025 6433 0056 0000 d7e2 ffff     %1d.%03dV.......
    4af0:	d708 ffff d7dc ffff d710 ffff d7dc ffff     ................
    4b00:	d6d6 ffff d7dc ffff d710 ffff d708 ffff     ................
    4b10:	d708 ffff d6d6 ffff d710 ffff d716 ffff     ................
    4b20:	d716 ffff d716 ffff d6d6 ffff d6c8 ffff     ................
    4b30:	d6c8 ffff d79c ffff d878 ffff d79c ffff     ........x.......
    4b40:	d696 ffff d79c ffff d878 ffff d6c8 ffff     ........x.......
    4b50:	d6c8 ffff d696 ffff d878 ffff d6d6 ffff     ........x.......
    4b60:	d6d6 ffff d6d6 ffff d696 ffff daf0 ffff     ................
    4b70:	da3e ffff da3e ffff da3c ffff da42 ffff     >...>...<...B...
    4b80:	da42 ffff da12 ffff da3c ffff da42 ffff     B.......<...B...
    4b90:	da12 ffff da42 ffff da3c ffff dade ffff     ....B...<.......
    4ba0:	dade ffff dade ffff da12 ffff               ............

00004bac <__clz_tab>:
    4bac:	0100 0202 0303 0303 0404 0404 0404 0404     ................
    4bbc:	0505 0505 0505 0505 0505 0505 0505 0505     ................
    4bcc:	0606 0606 0606 0606 0606 0606 0606 0606     ................
    4bdc:	0606 0606 0606 0606 0606 0606 0606 0606     ................
    4bec:	0707 0707 0707 0707 0707 0707 0707 0707     ................
    4bfc:	0707 0707 0707 0707 0707 0707 0707 0707     ................
    4c0c:	0707 0707 0707 0707 0707 0707 0707 0707     ................
    4c1c:	0707 0707 0707 0707 0707 0707 0707 0707     ................
    4c2c:	0808 0808 0808 0808 0808 0808 0808 0808     ................
    4c3c:	0808 0808 0808 0808 0808 0808 0808 0808     ................
    4c4c:	0808 0808 0808 0808 0808 0808 0808 0808     ................
    4c5c:	0808 0808 0808 0808 0808 0808 0808 0808     ................
    4c6c:	0808 0808 0808 0808 0808 0808 0808 0808     ................
    4c7c:	0808 0808 0808 0808 0808 0808 0808 0808     ................
    4c8c:	0808 0808 0808 0808 0808 0808 0808 0808     ................
    4c9c:	0808 0808 0808 0808 0808 0808 0808 0808     ................
    4cac:	2d23 2b30 0020 0000 6c68 004c 6665 4567     #-0+ ...hlL.efgE
    4cbc:	4746 0000 3130 3332 3534 3736 3938 4241     FG..0123456789AB
    4ccc:	4443 4645 0000 0000 3130 3332 3534 3736     CDEF....01234567
    4cdc:	3938 6261 6463 6665 0000 0000               89abcdef....
